ccollections
defaultdict
p0
(c__builtin__
float
p1
tp2
Rp3
S'tat'
p4
cnumpy.core.multiarray
scalar
p5
(cnumpy
dtype
p6
(S'f8'
p7
I0
I1
tp8
Rp9
(I3
S'<'
p10
NNNI-1
I-1
I0
tp11
bS'\xbd\xebC\xd5m\xcf(?'
p12
tp13
Rp14
sS'tgt'
p15
g5
(g9
S'nT\xd1\x0b\xe4h)?'
p16
tp17
Rp18
sS'tct'
p19
g5
(g9
S'&I\x1at\xaa\x917?'
p20
tp21
Rp22
sS'ctt'
p23
g5
(g9
S'\x1aI\x91\xec\x85\xaa-?'
p24
tp25
Rp26
sS'ttt'
p27
g5
(g9
S'h\xc9\xa3=\xe4-0?'
p28
tp29
Rp30
sS'tgc'
p31
g5
(g9
S'W\xacZ\\\xc0.$?'
p32
tp33
Rp34
sS'tag'
p35
g5
(g9
S"\xbe\x94\x1c'\xf5+{?"
p36
tp37
Rp38
sS'tgg'
p39
g5
(g9
S'\xe7\xa3\x1f\xc7\xb7\xbe)?'
p40
tp41
Rp42
sS'tac'
p43
g5
(g9
S'\x9a\xbci\xcf@\x8d)?'
p44
tp45
Rp46
sS'ttc'
p47
g5
(g9
S'\x03\x8d~V\x1e\xd0.?'
p48
tp49
Rp50
sS'tcg'
p51
g5
(g9
S'\xa0&F\x8d\x84\xe3K?'
p52
tp53
Rp54
sS'tta'
p55
g5
(g9
S'_\x9d3\x91\x0e\xa6(?'
p56
tp57
Rp58
sS'ttg'
p59
g5
(g9
S'\xfd\x0b\xe4rM\x95)?'
p60
tp61
Rp62
sS'tcc'
p63
g5
(g9
S'jBk\xc8\xeeR6?'
p64
tp65
Rp66
sS'tca'
p67
g5
(g9
S'\x96P\xe7[\xcf\x95:?'
p68
tp69
Rp70
sS'gca'
p71
g5
(g9
S'\x05\xae\xd8\xb8\xf309?'
p72
tp73
Rp74
sS'gta'
p75
g5
(g9
S'T!\xce\x12\x07\xe6&?'
p76
tp77
Rp78
sS'gcc'
p79
g5
(g9
S'\x17\xde\xfc\x95\xc1l4?'
p80
tp81
Rp82
sS'gtc'
p83
g5
(g9
S'\xab\x08\x06\x8e\xd6\xfd*?'
p84
tp85
Rp86
sS'gcg'
p87
g5
(g9
S'\xd0\xcb\xf9\x7f0\xdd@?'
p88
tp89
Rp90
sS'gtg'
p91
g5
(g9
S'V5M()Q,?'
p92
tp93
Rp94
sS'caa'
p95
g5
(g9
S'P\xba\x08\xc2\x81\xe71?'
p96
tp97
Rp98
sS'gtt'
p99
g5
(g9
S']B\xfe\xa9W\xe8+?'
p100
tp101
Rp102
sS'gct'
p103
g5
(g9
S'\xc3qXU1\x817?'
p104
tp105
Rp106
sS'ctc'
p107
g5
(g9
S'\n\xf2(E^\xaa(?'
p108
tp109
Rp110
sS'ggt'
p111
g5
(g9
S'd\xe8\\\xd5\xad\x0f$?'
p112
tp113
Rp114
sS'cga'
p115
g5
(g9
S'+8\xa7\xff[\xce)?'
p116
tp117
Rp118
sS'cgc'
p119
g5
(g9
S'W\xb2\xe9p\xe2\xb1,?'
p120
tp121
Rp122
sS'gat'
p123
g5
(g9
S'\x1f\xef/\x92x)/?'
p124
tp125
Rp126
sS'aag'
p127
g5
(g9
S'\xca\xa8\xfe*\x90\xbc-?'
p128
tp129
Rp130
sS'cgg'
p131
g5
(g9
S'$I\xba\xc2\x97\xe6+?'
p132
tp133
Rp134
sS'ggg'
p135
g5
(g9
S'\xdc$m\xac\x15\x16%?'
p136
tp137
Rp138
sS'gga'
p139
g5
(g9
S'x%\xb8\x1b\x11\x02&?'
p140
tp141
Rp142
sS'ggc'
p143
g5
(g9
S'\x9c\x84\xaa\xe9\xe1\x8a#?'
p144
tp145
Rp146
sS'gag'
p147
g5
(g9
S'\xfe\xde\x89\xab\xe4\xad-?'
p148
tp149
Rp150
sS'aaa'
p151
g5
(g9
S"\x15\xb4\xe3\xe1'\x96-?"
p152
tp153
Rp154
sS'gac'
p155
g5
(g9
S'\xec8W\xce\xab\x91\x81?'
p156
tp157
Rp158
sS'cgt'
p159
g5
(g9
S'\x10/\x95\xfd1\x04.?'
p160
tp161
Rp162
sS'gaa'
p163
g5
(g9
S'\xabBH\x05\xa1\r,?'
p164
tp165
Rp166
sS'acc'
p167
g5
(g9
S'd4\xc1_\x8e:5?'
p168
tp169
Rp170
sS'atg'
p171
g5
(g9
S'\x119\xcdgD\xca/?'
p172
tp173
Rp174
sS'aca'
p175
g5
(g9
S'\x81i\xc7\xc4\xb8o7?'
p176
tp177
Rp178
sS'acg'
p179
g5
(g9
S'\xce\xa6\x04\xd7\xd6JF?'
p180
tp181
Rp182
sS'atc'
p183
g5
(g9
S'\x00_Ux\xd0d)?'
p184
tp185
Rp186
sS'aac'
p187
g5
(g9
S'f\xfb\xd7T\xa1\x90/?'
p188
tp189
Rp190
sS'ata'
p191
g5
(g9
S'\xa42*x;z\x81?'
p192
tp193
Rp194
sS'agg'
p195
g5
(g9
S'\xa1\xe1h\xb2\xf39&?'
p196
tp197
Rp198
sS'cct'
p199
g5
(g9
S'Wf\xcb]\x07\xb1o?'
p200
tp201
Rp202
sS'agc'
p203
g5
(g9
S'\xe7`8\xd5\x07\xa6"?'
p204
tp205
Rp206
sS'aga'
p207
g5
(g9
S'\xf5O\xc7\xa9\xa1\xb3)?'
p208
tp209
Rp210
sS'cat'
p211
g5
(g9
S'\xdf\x1fa\xf5z\xc42?'
p212
tp213
Rp214
sS'aat'
p215
g5
(g9
S'4|\x12\xa4\x14\xfe+?'
p216
tp217
Rp218
sS'att'
p219
g5
(g9
S'\xe8\xc1"\xeeR\xc2\'?'
p220
tp221
Rp222
sS'ctg'
p223
g5
(g9
S'\x98j \x0b\xff\x19(?'
p224
tp225
Rp226
sS'cta'
p227
g5
(g9
S'\x05\xcf\x9bK\x96c&?'
p228
tp229
Rp230
sS'act'
p231
g5
(g9
S':Y\xfa1\x0bp7?'
p232
tp233
Rp234
sS'cac'
p235
g5
(g9
S'\x7fB>\xb1p\x9d0?'
p236
tp237
Rp238
sS'tga'
p239
g5
(g9
S'9\x86@\xa6A\xd3*?'
p240
tp241
Rp242
sS'ccg'
p243
g5
(g9
S'<\xe2?N\xbca\x98?'
p244
tp245
Rp246
sS'agt'
p247
g5
(g9
S'\x13\x8e\x8d\xd4\x8f\x8e*?'
p248
tp249
Rp250
sS'cag'
p251
g5
(g9
S'em*p\xe5(0?'
p252
tp253
Rp254
sS'cca'
p255
g5
(g9
S'\x8b\xcdf\x9feM7?'
p256
tp257
Rp258
sS'ccc'
p259
g5
(g9
S'\x93\xf110:<7?'
p260
tp261
Rp262
sS'taa'
p263
g5
(g9
S'\x14;\xd2_\xd42(?'
p264
tp265
Rp266
s.