ccollections
defaultdict
p0
(c__builtin__
list
p1
tp2
Rp3
S'tat'
p4
(lp5
F0.00023405500292568755
aF0.000156036668617125
aF3.902972113264251e-05
aF0.0002146634662295338
aF0.00015611888453057003
aF0.00034030324800544487
aF7.562294400120997e-05
aF0.00016533366400066132
aF0.00020666708000082666
aF0.00010334421892439338
aF0.00010334421892439338
aF9.320098793047206e-05
aF0.0006524069155133044
aF0.00041940444568712426
aF9.33009889904833e-05
aF0.00015648363876621344
aF0.00012170949681816602
aF5.209509090593363e-05
aF0.0006077760605692257
aF0.00013892024241582302
aF8.575593859874797e-05
aF0.00045736500585998914
aF0.00020009719006374525
aF0.0005138159397122631
aF0.0001998173098881023
aF8.551150129692444e-05
aF0.00019952683635949034
aF0.0003704653614887008
aF0.00019948134849391582
aF0.0002884026100436209
aF0.0001967905254307029
aF0.00012523033436499274
aF0.00015736260277744994
aF4.309230371455658e-05
aF0.0004524691890028441
aF0.00034473842971645267
aF0.00015089133668168395
aF8.618832148243914e-05
aF0.0001292824822236587
aF0.00018887524789876287
aF0.0001652658419114175
aF0.00016530096582992893
aF0.0002125298132099086
aF0.00010426441455531227
aF0.00020852882911062454
aF0.00022468544038346314
aF0.00011234272019173157
aF4.358627903935841e-05
aF0.00010896569759839603
aF8.717255807871682e-05
aF4.6061722708429294e-05
aF0.00028300243817485195
aF4.353883664228492e-05
aF0.0001523759768388515
aF0.00021767996691264503
aF0.00017412123190771575
aF0.00010882576994232234
aF0.00011252391133115787
aF0.00018753281824319257
aF0.00018753985221859644
aF0.00011252391133115787
aF7.246901949416625e-05
asS'tgt'
p6
(lp7
F0.00018812905653278148
aF0.00018812905653278148
aF0.00018812905653278148
aF0.00013283740701381508
aF0.00019925611052072262
aF0.00026089225150013044
aF0.00019566918862509784
aF4.718539140282169e-05
aF9.437078280564338e-05
aF0.00014155617420846505
aF0.0003402389233328293
aF0.00026463027370331166
aF0.00022682594888855285
aF0.0001883002761737384
aF0.00015691689681144864
aF6.276675872457946e-05
aF0.00039676814312509016
aF0.00028852742813863746
aF7.870297497245396e-05
aF7.909515146721506e-05
aF0.00018982836352131614
aF0.00022146642410820217
aF0.00012656425509025615
aF0.0001898463826353842
aF0.0002531285101805123
aF5.670541536716756e-05
aF0.0001417635384179189
aF0.00022682166146867025
aF0.00017017897155174858
aF8.508948577587429e-05
aF0.00022690529540233146
aF0.00010779114387961886
aF0.00017246583020739015
aF0.000560513948174018
aF8.620689655172413e-05
aF0.00023706896551724138
aF0.0001939655172413793
aF0.00032351989647363315
aF0.00017254394478593768
aF0.00019411193788417986
aF0.0001510411047577948
aF0.00012946380407810983
aF0.0001510411047577948
aF0.00012939400474444685
aF0.00010782833728703904
aF8.626266982963122e-05
aF0.0002448194456588266
aF6.994841304537903e-05
aF0.0003497420652268952
aF5.241731169080775e-05
aF0.000139779497842154
aF0.0001747243723026925
aF0.00020721094073767094
aF0.00020721094073767094
aF0.0005525625086337892
aF0.0004170576582212491
aF0.00010426441455531227
aF0.00029976019184652276
aF0.00022469385462307607
aF0.00022480329711502435
aF7.493443237167478e-05
aF0.00014979029358897544
aF0.0001123721766490617
aF0.0002611932176827808
aF0.0001523627103149555
aF0.0002829593191563459
aF0.00030503747603276976
aF0.0002614606937423741
aF0.00021788391145197839
aF0.00014159721660328507
aF0.00012136904280281576
aF0.0005259325188122016
aF0.0002627536583393969
aF0.00020211819872261298
aF0.0003031772980839195
aF0.0001500206278363275
aF7.501031391816375e-05
aF0.00026253609871357313
aF0.00015001500150015003
aF0.0001875187518751875
aF0.000375037503750375
aF0.0001125112511251125
aF0.0001875187518751875
aF9.313299391531106e-05
aF0.00015522165652551845
aF0.00018626598783062212
aF0.00034782608695652176
aF0.00014906832298136645
aF9.937888198757764e-05
aF0.00012422051626046558
aF0.00022359692926883805
aF0.0001490646195125587
aF8.836068832976209e-05
aF0.00015463120457708364
aF0.00017672137665952417
aF0.00024207604415467046
aF0.00016149088383960724
aF0.0002583854141433716
aF0.00016149088383960724
aF9.685386366204458e-05
aF0.00016142310610340764
aF0.0002905615909861338
aF0.0001937953198430258
aF0.00011304726990843171
aF0.00024224414980378225
aF0.00015688243230523047
aF0.00015688243230523047
aF0.00028238837814941484
aF0.0002822201317027281
aF0.00012543116964565694
aF0.00018814675446848542
aF0.000125458708402597
aF0.00015682338550324624
aF0.000376376125207791
aF0.00012544690459762904
aF6.272345229881452e-05
aF0.00021953208304585083
asS'ggt'
p8
(lp9
F0.00021464671102698694
aF0.00019513337366089723
aF0.00023416004839307668
aF9.752862465133517e-05
aF0.00019505724930267033
aF0.0002340686991632044
aF0.00012803277639075603
aF0.00019204916458613405
aF0.00019566918862509784
aF0.00019566918862509784
aF9.432182607055272e-05
aF0.0001414827391058291
aF0.00011790228258819091
aF7.562008469449486e-05
aF0.00011343012704174228
aF4.138644593895499e-05
aF0.00018623900672529747
aF0.00018623900672529747
aF0.0001864541089824267
aF0.00013897333449144444
aF8.685833405715279e-05
aF0.00010423000086858335
aF0.00018028412778538978
aF0.00014314855241026375
aF0.00014314855241026375
aF0.00010736141430769781
aF8.511362669163333e-05
aF0.00011348483558884444
aF0.00014181580962645715
aF0.00017017897155174858
aF0.00017017897155174858
aF0.00025970959745012394
aF0.0001652229329430925
aF7.08098284041825e-05
aF0.00018882620907782
aF0.00014162634249970495
aF0.00029695360536612634
aF0.0001222750139742873
aF0.00027948574622694243
aF0.0002099517111064455
aF0.0002449436629575198
aF0.0002624396388830569
aF0.00013193917603984562
aF0.00019790876405976845
aF0.00019790876405976845
aF0.00010426985037276472
aF0.00010426985037276472
aF0.00020853970074552944
aF0.00010423181154888472
aF0.00010424811050299713
aF0.00011242270938729624
aF0.00022476119123431354
aF7.492039707810451e-05
aF0.00011238059561715677
aF0.0002848539106372589
aF0.0002034670790266135
aF0.0002848539106372589
aF0.00014142556974300953
aF0.00028285113948601907
aF0.00016162922256343946
aF0.00018753985221859644
aF7.501594088743858e-05
aF0.00022503094175449124
aF0.0002173103191357258
aF0.00012417732522041475
aF0.00018626598783062212
aF9.313299391531106e-05
aF9.313299391531106e-05
aF0.00012403870007442322
aF6.201935003721161e-05
aF0.00015502433882119492
aF0.00012401947105695595
aF0.00018104790527573596
aF0.00010862874316544157
aF0.00018105446118192353
aF7.242178447276941e-05
aF0.0002732851357730243
aF0.00019875282601674492
aF0.0001739087227646518
aF9.934926233172718e-05
aF4.967463116586359e-05
aF0.00012418657791465898
aF4.419596490840386e-05
aF8.836654442628021e-05
aF9.686168151879117e-05
aF0.00014523625096824166
aF0.00011296152853085464
aF0.00017751097340562872
aF0.00011299435028248587
aF0.00016142050040355126
aF0.00022598870056497175
aF0.00016142310610340764
aF0.00016142310610340764
aF0.00011299617427238535
aF6.269199423233653e-05
aF9.40379913485048e-05
aF9.40851784482218e-05
aF6.272345229881452e-05
aF0.00021953208304585083
asS'tct'
p10
(lp11
F0.00013657204175202418
aF0.0006048190420446785
aF5.854458169896376e-05
aF0.00039029721132642506
aF0.0005153975003221235
aF0.0015276301806588736
aF4.133939644481191e-05
aF0.0006614303431169905
aF0.00020669698222405952
aF6.200909466721785e-05
aF0.0009921455146754857
aF0.0006057217407510949
aF0.00013987970345502866
aF0.0006527719494568005
aF3.478018920422927e-05
aF0.0005564830272676684
aF0.0007477740678909293
aF0.00017373779491990687
aF0.0007123249591716182
aF6.949511796796275e-05
aF0.0006602036206956461
aF5.2113189848350616e-05
aF0.0004863897719179391
aF3.398470688190314e-05
aF5.097706032285471e-05
aF0.000832625318606627
aF6.287528686849633e-05
aF0.00012575057373699267
aF0.0010688798767644378
aF0.0001255295779067943
aF0.0006276478895339715
aF0.00010817047667123386
aF0.0004687387322420134
aF0.0006852032168487864
aF0.0003223264809111095
aF5.372108015185159e-05
aF0.0008595372824296254
aF3.576282097131822e-05
aF0.0008583077033116372
aF7.867511112859447e-05
aF0.0005900633334644586
aF7.873395795606645e-05
aF0.0001789356905128297
aF0.0006799556239487528
aF0.0005369415807560138
aF0.0002148458481039854
aF0.0006445375443119562
aF3.167363486633726e-05
aF0.0003642468009628785
aF3.1637059651675976e-05
aF0.0001265482386067039
aF0.00011078578776608372
aF0.0005855820210492996
aF0.00014236676843254188
aF3.1637059651675976e-05
aF0.0004903744246009776
aF0.00020560185990605576
aF0.00042701924749719277
aF0.00018990346573824973
aF3.165057762304162e-05
aF0.0005380598195917076
aF0.0005671184710486021
aF4.313598619648442e-05
aF0.0009274237032244149
aF4.311645755184754e-05
aF0.0007114215496054844
aF4.3106235316938593e-05
aF0.00045261547082785524
aF6.473190203905492e-05
aF0.000712050922429604
aF4.723442444853809e-05
aF0.00016532048556988334
aF6.593696426216537e-05
aF0.0004615587498351576
aF0.000886339937434828
aF0.00010426441455531227
aF0.0008862475237201543
aF0.00020865936358894105
aF0.0008346374543557642
aF0.00010432968179447053
aF0.00046948356807511736
aF0.00026063386155129273
aF0.00011240586009217281
aF0.0006744351605530368
aF0.00026233931716823444
aF0.00011252391133115787
aF0.0006001050183782162
aF7.500750075007501e-05
aF0.0006375637563756375
aF0.00015000937558597413
aF7.500468779298706e-05
aF0.0006750421901368836
aF0.00015000937558597413
aF0.0001860869025835065
aF0.0005892751915144372
aF6.201935003721161e-05
aF0.0004961548002976929
aF0.0001832460732984293
aF0.0005235602094240838
aF0.0001242328620766765
aF0.000496931448306706
aF7.453786523553965e-05
aF0.0005466110117272908
aF8.839192981680772e-05
aF8.839192981680772e-05
asS'ttt'
p12
(lp13
F0.0001279263144428809
aF0.0005117052577715236
aF0.00038387715930902113
aF0.00044779938587512794
aF7.073970147845977e-05
aF0.00030653870640665894
aF0.00012398743593982476
aF0.00033063316250619935
aF0.0002066371864280696
aF0.0004132743728561392
aF0.0001864541089824267
aF0.00027968116347364006
aF0.0002799029669714499
aF9.33009889904833e-05
aF0.00023325247247620826
aF0.0002799029669714499
aF0.0001700564587443031
aF0.0002890959798653153
aF6.279040562602035e-05
aF0.0002825568253170916
aF6.279040562602035e-05
aF0.00023708940425898784
aF0.0002155358220536253
aF0.0001509043482010046
aF0.00012934658417228966
aF0.00019419570611716475
aF6.473190203905492e-05
aF0.00023735030747653468
aF8.630920271873988e-05
aF0.00028050490883590464
aF8.626266982963122e-05
aF0.0003881820142333405
aF0.0002801060093512314
aF0.0007541315636379307
aF0.00014984079415620902
aF0.00018730099269526128
aF8.703977717817043e-05
aF0.0003263991644181391
aF0.00015233286908077995
aF0.0004569986072423398
aF4.352367688022284e-05
aF8.702841477742483e-05
aF0.00017405682955484966
aF4.0412204485754696e-05
aF0.00024247322691452818
aF0.00012120232708468003
aF0.0004646089204912734
aF0.00010101010101010101
aF0.00042424242424242425
aF0.00022503094175449124
aF0.0008626186100588831
aF7.501031391816375e-05
aF0.00022503094175449124
aF0.0006375876683043919
asS'tgc'
p14
(lp15
F9.752291788570315e-05
aF3.900916715428125e-05
aF9.752291788570315e-05
aF9.754574895626048e-05
aF0.00017558234812126887
aF0.00029263724686878144
aF0.0002646602896139741
aF7.561722560399259e-05
aF0.00010344256868586561
aF0.00031032770605759683
aF0.00033101621979476995
aF9.33009889904833e-05
aF0.00018642803877703205
aF0.00013982102908277405
aF0.00010423905489923558
aF8.686587908269631e-05
aF0.0001911049339819319
aF8.684626474215344e-05
aF8.684626474215344e-05
aF0.00023807904224202434
aF0.0001700564587443031
aF5.101693762329093e-05
aF0.00018694765465669612
aF5.098572399728076e-05
aF0.00013596193065941537
aF0.0001884303749764462
aF0.00012562024998429746
aF9.417378201908589e-05
aF0.00015695630336514315
aF9.417082587814295e-05
aF0.0001569513764635716
aF7.211365111415591e-05
aF7.21422645456841e-05
aF7.21422645456841e-05
aF7.21422645456841e-05
aF0.00010729613733905579
aF0.00010729613733905579
aF0.0002861230329041488
aF0.00014306407482251113
aF0.00010729805611688335
aF0.00017883009352813892
aF0.0001431229426077
aF8.94518391298125e-05
aF0.000178903678259625
aF0.00033974072418417524
aF8.94054537326777e-05
aF0.00016092981671881986
aF0.00019672647151400692
aF7.869058860560277e-05
aF0.00023607176581680832
aF0.0001967574374311349
aF0.0001967574374311349
aF0.00011072620572929025
aF0.00011072620572929025
aF0.00034799664657776935
aF0.00012661232887552427
aF0.00018991849331328637
aF9.495924665664319e-05
aF0.0001897683245038349
aF0.00031628054083972484
aF0.00020558235154582115
aF7.907138564696208e-05
aF3.162855425878483e-05
aF0.00011334334532883739
aF5.667167266441869e-05
aF0.0002550225269898841
aF0.0008504124500382685
aF0.0003118178983473651
aF0.000198429571675596
aF0.00012929919834497026
aF6.464959917248513e-05
aF0.00010774933195414188
aF7.471607890017931e-05
aF0.00014169992678837116
aF9.446661785891411e-05
aF0.00030701650804147083
aF7.092533925953946e-05
aF0.00033063316250619935
aF0.00034940600978336826
aF0.0001222921034241789
aF0.00033193570929419987
aF0.00019218673562093787
aF6.988608568034104e-05
aF0.00024460129988119366
aF0.0001223156092191022
aF8.736829229935872e-05
aF8.736829229935872e-05
aF5.2412732799888186e-05
aF0.0001397672874663685
aF0.00020965093119955274
aF0.00032976092333058534
aF9.89282769991756e-05
aF0.00016488046166529267
aF0.00013190001978500296
aF6.595000989250148e-05
aF6.595000989250148e-05
aF9.890544639324805e-05
aF0.00013187392852433074
aF0.0002071966296014918
aF0.00013813108640099454
aF0.0003127606338615513
aF0.00015638031693077564
aF0.0004170141784820684
aF0.00026231965523702453
aF0.00018729397662571172
aF0.00011237638597542703
aF0.00011237638597542703
aF7.493162489228579e-05
aF7.493162489228579e-05
aF7.493162489228579e-05
aF8.083420903726457e-05
aF6.062565677794843e-05
aF0.0001010427612965807
aF0.0001125112511251125
aF0.00015001500150015003
aF0.0001875187518751875
aF0.00018751171948246765
aF0.00015000937558597413
aF6.208866261020738e-05
aF0.00012417732522041475
aF0.00015507722845977296
aF0.00015507722845977296
aF0.00018609267415172756
aF0.00012406947890818859
aF0.00014490653528474135
aF0.00018113316910592668
aF0.00014498006524102936
aF7.249003262051468e-05
aF0.00014498006524102936
aF7.454712620828467e-05
aF0.0001987923365554258
aF9.93961682777129e-05
aF0.00012920313963629316
aF9.690235472721988e-05
aF0.0002584062792725863
aF6.457966709181615e-05
aF8.072458386477018e-05
aF0.00011301441741067825
aF0.00018816445573431178
aF6.272148524477059e-05
aF9.408222786715589e-05
aF0.00013271840472477522
aF0.00018806419257773319
aF9.403209628886659e-05
asS'tag'
p16
(lp17
F0.0002731920540139718
aF0.00021465089958240644
aF0.00023405500292568755
aF0.00027306417007996877
aF0.49912599430423255
aF0.0001890073334845392
aF7.560293339381567e-05
aF0.00012166507343356218
aF0.0001564265229860085
aF3.4761449552446336e-05
aF0.00024333014686712435
aF0.00013904579820978535
aF0.00019962925994581492
aF8.555539711963496e-05
aF0.0002197112366603892
aF6.277463904582549e-05
aF0.0002164424082825295
aF7.214746942750983e-05
aF0.0002523886785649901
aF0.00015730690577316344
aF7.865345288658172e-05
aF0.0005510726234993112
aF0.00011808699074985239
aF0.0006092316513761468
aF0.00028669724770642203
aF0.00028646113080531385
aF0.0001423577608705968
aF4.74525869568656e-05
aF0.00021560087965158897
aF0.00012936052779095338
aF5.2431969519548384e-05
aF0.00027963717077092475
aF0.00012234126221227957
aF0.00013978438258985514
aF0.00013978438258985514
aF0.0001048327916972429
aF0.0002271377153440263
aF8.736065974770241e-05
aF0.0002763003384679146
aF0.00020846362309776944
aF0.00033729340778773
aF7.495409061949556e-05
aF6.528267397832615e-05
aF0.0002828915872394133
aF0.00019584802193497845
aF0.0002626740215392698
aF0.0001818512456810329
aF0.00023624837579241644
aF0.000375037503750375
aF6.210408644888833e-05
aF0.00043472860514221835
aF0.00043472860514221835
aF0.0005074486208271413
aF0.00014498532023632607
aF0.00014484881405033497
aF0.00032590983161325367
aF0.00018113316910592668
aF0.00021731256791017748
aF7.243752263672582e-05
aF0.00047077569348881004
aF0.0008329108423263562
aF0.00021740705848249874
aF0.00036213514883754616
aF0.00014485405953501847
aF0.00017663553465368395
aF0.00019871497648539445
aF0.0002209114807696556
aF0.00024300262884662115
aF3.227784771311449e-05
aF0.0002582227817049159
aF0.00012911139085245796
aF0.00016149609986918816
aF8.074804993459408e-05
aF3.234518784467841e-05
aF0.0004366600359031585
aF0.002005401646370061
aF0.00025079156086397694
aF0.0001880936706479827
asS'tgg'
p18
(lp19
F9.75267223219162e-05
aF5.851603339314972e-05
aF0.00027307482250136535
aF0.00011714860300290919
aF0.00017572290450436378
aF0.00027334674034012145
aF0.0005217845030002609
aF0.00019213526322531062
aF7.07430377060391e-05
aF0.0001179050628433985
aF0.0004480392388049143
aF0.00016508265924580808
aF0.00018866589628092353
aF0.00011341726210729273
aF0.0002646402782503497
aF0.0003780575403576424
aF0.00011354174551510106
aF0.00011354174551510106
aF0.00022708349103020212
aF0.0001891145656038428
aF0.00015129165248307426
aF0.00026476039184537993
aF7.576618555138841e-05
aF0.00018941546387847105
aF7.565441065214103e-05
aF0.00011348161597821153
aF0.00023299161230195712
aF0.00013979496738117427
aF5.211500043429167e-05
aF6.948666724572222e-05
aF0.0002432033353600278
aF8.550662676357418e-05
aF0.00011400883568476557
aF0.00022801767136953113
aF0.00013598735317615462
aF0.00010199051488211596
aF0.0001359249694168819
aF0.0001359249694168819
aF0.00025485931765665355
aF0.00011893838991402454
aF5.0973595677439085e-05
aF0.0002548679783871954
aF0.0002208405531206469
aF0.0001443001443001443
aF0.0001443001443001443
aF0.0006132756132756133
aF0.00010826025765941322
aF0.00014434701021255098
aF0.00010826025765941322
aF7.21422645456841e-05
aF0.002982107355864811
aF7.865963973885e-05
aF7.865963973885e-05
aF0.000117989459608275
aF7.868439688409789e-05
aF0.00043276418286253835
aF0.0002147766323024055
aF0.00010738831615120275
aF0.00010738831615120275
aF0.00010741138560687433
aF0.00032223415682062297
aF0.00021479200973723776
aF7.158964813687941e-05
aF0.00014317929627375881
aF0.0002147689444106382
aF0.00034807372834427656
aF0.00012653222617635428
aF0.0002056148675365757
aF0.0003479636219849743
aF8.515711487694797e-05
aF0.00014192852479491327
aF0.00014173942623880257
aF5.6695770495521035e-05
aF0.0001700873114865631
aF0.0001700487473075615
aF0.0001700487473075615
aF0.0001417072894229679
aF0.00019854213347704003
aF0.00019854213347704003
aF4.312296513508269e-05
aF0.00010780741283770672
aF0.0003018607559455788
aF0.00047219926809113444
aF4.721992680911345e-05
aF0.00041982262494096246
aF6.99704374901604e-05
aF0.0008046600311368446
aF0.00015728491288163437
aF6.990440572517083e-05
aF0.00017476101431292707
aF0.0002969610980961494
aF0.00016492397004980703
aF0.00032984794009961407
aF6.595000989250148e-05
aF6.595000989250148e-05
aF0.00029677504451625667
aF0.00013815971262779773
aF0.00013815971262779773
aF0.0002072825260830512
aF0.00027637670144406825
aF0.0002072825260830512
aF0.00010426985037276472
aF0.00010426985037276472
aF0.00020853970074552944
aF0.00010427528675703858
aF0.00010425897930459261
aF0.0001563884689568889
aF0.00011242270938729624
aF0.0003662407422479043
aF0.0001220802474159681
aF0.0003255473264425816
aF0.00018182920176980423
aF0.0002424389356930723
aF0.00012133222786192392
aF0.0001011101898849366
aF0.0002022203797698732
aF0.00014155712841253793
aF4.044489383215369e-05
aF0.00034378159757330636
aF0.00018185492018589613
aF6.0618306728632044e-05
aF0.00020206102242877348
aF0.0003379393211174527
aF0.0001877440672874737
aF0.00011252813203300826
aF0.00015003750937734434
aF0.00018754688672168043
aF9.313299391531106e-05
aF0.00018626598783062212
aF0.00012417732522041475
aF0.0002483546504408295
aF6.201935003721161e-05
aF6.201935003721161e-05
aF0.00021706772513024064
aF0.0001810610175629187
aF7.671653241273494e-05
aF0.00015343306482546988
aF0.00046029919447640965
aF0.00027353657930074106
aF7.460088526383847e-05
aF0.00042273834982841795
aF0.00012421743018980422
aF9.936160170901955e-05
aF0.00014904240256352933
aF0.00027324440469980374
aF6.461200491051237e-05
aF0.00016138663395897553
aF0.00011297064377128286
aF9.68319803753853e-05
aF4.844882996075645e-05
aF0.00014534648988226935
aF0.0002906929797645387
aF0.00011299435028248587
aF6.45682001614205e-05
aF0.0003066989507667474
aF0.0002259923485447707
aF0.00011299617427238535
aF0.0002259923485447707
aF0.0001881703568964436
aF0.00012544690459762904
aF0.00021953208304585083
aF0.00015679387876697294
aF0.00012543510301357835
aF0.0003135877575339459
aF9.407632726018377e-05
aF0.00012543510301357835
aF0.00018815265452036753
asS'tac'
p20
(lp21
F0.00018907880804719407
aF0.00015126304643775526
aF0.0002689061724309118
aF8.274036074797286e-05
aF0.00022736198094293214
aF0.00026870052293255617
aF4.1335978835978834e-05
aF0.0003513558201058201
aF0.0002686838624338624
aF0.00014742014742014743
aF9.828009828009828e-05
aF3.4015919450302745e-05
aF0.00027212735560242196
aF3.4015919450302745e-05
aF0.00020398449717821447
aF0.00015298837288366083
aF0.00018036216723180145
aF0.000393251799126981
aF0.0003146014393015848
aF7.871536523929471e-05
aF0.00010736909917325794
aF0.00018984337921214997
aF0.0001265622528081
aF0.00015822784810126583
aF0.00015822784810126583
aF0.00023719165085388995
aF0.0007275372862859222
aF0.0002056083635155867
aF0.00010774004481985865
aF6.464402689191518e-05
aF0.00023607176581680832
aF0.00011803588290840416
aF0.0006779307467667918
aF0.00031289111389236547
aF0.00031298904538341156
aF0.0001563640154279162
aF0.00010424267695194412
aF0.0001563640154279162
aF7.494004796163069e-05
aF0.00018735011990407674
aF0.0003747002398081535
aF0.00026217228464419474
aF7.49063670411985e-05
aF0.00018726591760299626
aF0.00014985202112913497
aF0.00011238901584685124
aF0.00017419326743021383
aF8.709663371510691e-05
aF0.0003750234389649353
aF0.00022501406337896117
aF0.00021728108930252772
aF0.00010864054465126386
aF0.0001767291846157245
aF8.836459230786225e-05
aF0.0001546380365387589
aF6.627344423089668e-05
aF0.0004418132013784572
aF0.00030926924096492004
aF0.00014525500322788896
aF0.00011297611362169141
aF3.22913975716869e-05
aF4.843709635753036e-05
aF0.00017760268664427796
asS'ttc'
p22
(lp23
F0.0003315714536482612
aF0.0008581849388543231
aF5.8512609467340214e-05
aF0.000487652635274841
aF0.0006827136893847774
aF3.901221082198728e-05
aF0.00025590173373424605
aF0.0004478280340349306
aF0.0003199181009661527
aF9.43240502747188e-05
aF0.0005187822765109534
aF8.269930532583527e-05
aF0.0003721468739662587
aF0.00032614266411964775
aF9.318361831989936e-05
aF0.0002782415136338342
aF0.0002782415136338342
aF3.478018920422927e-05
aF0.000382582081246522
aF0.0001389685062622683
aF0.00029530807580732015
aF0.00010816267666570522
aF0.00018027112777617538
aF0.00014423250279450473
aF0.00014423250279450473
aF7.211625139725237e-05
aF7.214746942750983e-05
aF0.0002164424082825295
aF7.225172500993461e-05
aF0.00039738448755464035
aF0.00017889727718344126
aF0.00016100754946509713
aF5.366918315503238e-05
aF0.00019680460880611167
aF0.0002683699210992432
aF0.00028649190660363845
aF0.00025068041827818366
aF0.0003163705965167597
aF0.0007118338421627094
aF7.909264912918993e-05
aF9.495924665664319e-05
aF0.00033235736329825116
aF3.165308221888107e-05
aF0.0001292964120245663
aF0.0003232410300614158
aF6.467329208614483e-05
aF0.00047427080863172874
aF4.311273981461522e-05
aF0.00019400732916576848
aF0.0007562008469449486
aF0.0006913836314925245
aF4.321147696828278e-05
aF7.084327106996954e-05
aF0.00037783077903983753
aF0.00010427528675703858
aF7.49063670411985e-05
aF0.00026217228464419474
aF0.0002247443532981234
aF0.00037457392216353895
aF7.491478443270779e-05
aF4.6061722708429294e-05
aF0.00036849378166743435
aF0.0001741515553910791
aF0.00021768944423884885
aF0.0002222581427301382
aF0.0005051321425684959
aF0.0001500206278363275
aF0.0001500206278363275
aF0.00015004876584890088
aF0.00015004876584890088
aF0.00030006376354975434
aF7.501594088743858e-05
aF6.20289675278355e-05
aF0.000248115870111342
aF9.305210918114144e-05
aF0.0004962779156327543
aF0.00022359692926883805
aF0.00022359692926883805
aF4.968820650418623e-05
aF9.934679482403198e-05
aF0.000298040384472096
aF0.0002209114807696556
aF6.454423700643829e-05
aF0.00012908847401287658
asS'tcg'
p24
(lp25
F7.154227254028724e-05
aF0.001037362951834165
aF9.445769475995938e-05
aF0.001393250997709401
aF0.0012061039346955898
aF0.0011741142344084536
aF0.0012436951564983071
aF0.00011233851338700617
aF0.001198277476128066
aF0.0012408102490926575
aF9.939369843951894e-05
aF0.0013418149289335056
asS'tta'
p26
(lp27
F9.757430283160627e-05
aF0.0004293269324590676
aF4.716091303527636e-05
aF0.0003065459347292964
aF0.00012403100775193799
aF0.00024806201550387597
aF8.267708397924806e-05
aF0.00039271614890142823
aF6.200781298443604e-05
aF0.00012405152273244153
aF0.00012405152273244153
aF9.828009828009828e-05
aF0.00010420465794821029
aF0.0002778790878618941
aF0.00012557292647705155
aF0.0002511458529541031
aF0.00011801730920535012
aF0.0007867820613690008
aF7.86720163637794e-05
aF0.000393360081818897
aF4.746760336070632e-05
aF6.329013781427509e-05
aF3.163655920782056e-05
aF6.327311841564112e-05
aF0.00012933543144144337
aF0.00015089133668168395
aF0.00037783077903983753
aF5.24237234823332e-05
aF0.00029706776639988814
aF0.00015727117044699962
aF0.0002763957987838585
aF0.00010423181154888472
aF0.0002247864528697737
aF0.00015255197663775443
aF0.00028331081375582964
aF0.00021763259265707632
aF6.52954619653934e-05
aF0.0002176515398846447
aF0.00011251969094591554
aF0.0002897395965376118
aF0.00021740705848249874
aF8.834117361249145e-05
aF0.00019876764062810574
aF8.069722401549386e-05
aF0.0002905100064557779
asS'ttg'
p28
(lp29
F0.00011706860220088972
aF0.0001560914696011863
aF0.0002821935847991722
aF0.0005643871695983444
aF9.437078280564338e-05
aF0.0001178967224711153
aF9.431737797689224e-05
aF0.00015122301614305697
aF0.0002646402782503497
aF0.00023325247247620826
aF0.00029531833579431947
aF0.0001216016676800139
aF0.0001700564587443031
aF0.0003231072716141759
aF0.0001570006594027695
aF6.28002637611078e-05
aF6.28002637611078e-05
aF0.0002525252525252525
aF0.00021645021645021645
aF0.0002682403433476395
aF0.0002324749642346209
aF7.161528270132846e-05
aF0.0001074229240519927
aF0.00014243886998496479
aF0.00018991849331328637
aF7.909515146721506e-05
aF0.00018982836352131614
aF0.00019852524106636415
aF0.00022688598979013047
aF0.0002268473884194408
aF0.0003686270061815913
aF0.0001417072894229679
aF0.00025507312096134226
aF5.6726323850582865e-05
aF0.00014181580962645715
aF0.00011345264770116573
aF0.00022677665334353827
aF6.473190203905492e-05
aF0.00017261840543747977
aF0.00014175683976751878
aF0.0002362613996125313
aF0.00019218002026625668
aF3.4941821866592126e-05
aF0.00029686314608965266
aF0.00020851795860918522
aF0.0001563884689568889
aF0.00018735011990407674
aF0.00014988009592326138
aF7.493443237167478e-05
aF0.00018733608092918696
aF0.00018732906223071447
aF0.00029972649956914316
aF0.00022251441286537878
aF0.00044502882573075757
aF4.0457165975523414e-05
aF0.0001010427612965807
aF0.0003435453884083744
aF8.083420903726457e-05
aF0.00015003188177487717
aF0.00018753985221859644
aF0.00018753985221859644
aF0.00022504782266231574
aF0.0002250562640660165
aF0.00018754688672168043
aF0.00018626598783062212
aF0.0002793989817459332
aF0.00018110692552883223
aF0.00018110692552883223
aF7.453786523553965e-05
aF0.00017392168554959252
aF0.00019882692116512577
aF0.00029824038174768865
aF0.00016149609986918816
aF0.0002906929797645387
aF0.0004704701565097387
aF0.000376376125207791
asS'tcc'
p30
(lp31
F5.8512609467340214e-05
aF0.0008386807356985431
aF0.00011702293649555314
aF7.801529099703542e-05
aF0.0007411452644718365
aF0.0006397543343356152
aF0.00022743719631965263
aF0.0008477204590096144
aF0.00016536784008929864
aF4.134196002232466e-05
aF0.0007854972404241685
aF0.0001398014818957081
aF9.320098793047206e-05
aF0.0007922083974090126
aF6.947580505089103e-05
aF0.0008510786118734151
aF5.2108663933856735e-05
aF5.2108663933856735e-05
aF0.0009379559508094213
aF8.695047301057317e-05
aF3.478018920422927e-05
aF0.0006086533110740123
aF0.00022589838048237993
aF0.0005734343504552722
aF0.00014251510660129974
aF0.0004845513624444191
aF0.0001996919039196668
aF0.0006846579562960005
aF8.495887990212736e-05
aF5.097532794127642e-05
aF0.0008495887990212737
aF0.00010204081632653062
aF3.401360544217687e-05
aF0.0005102040816326531
aF0.00010193506736209034
aF0.00045870780312940655
aF0.0002825302150368859
aF0.000753413906765029
aF0.0002196836555360281
aF9.41501380868692e-05
aF0.0008473512427818227
aF7.211365111415591e-05
aF0.00010817047667123386
aF0.00014422730222831182
aF0.0007932501622557151
aF3.579098067287044e-05
aF0.0005547602004294918
aF0.00014318185885848263
aF0.0005906251677912409
aF8.94358387292956e-05
aF3.577433549171824e-05
aF0.0009122455550388152
aF7.866892184242615e-05
aF0.0006293513747394092
aF0.00019667230460606536
aF0.0006293513747394092
aF0.00011805910826020228
aF0.00017905744162727402
aF0.0007878527431600058
aF0.00014319979952028068
aF0.00046539934844091216
aF0.0002147689444106382
aF0.0008948706017109926
aF7.909139801955139e-05
aF6.327311841564112e-05
aF7.90601331372642e-05
aF0.0005376089053333965
aF0.00034080259009968474
aF5.6800431683280795e-05
aF0.0007668058277242907
aF8.93415527561869e-05
aF0.0004467077637809345
aF9.443316492752255e-05
aF0.0003541243684782096
aF0.0001180888500507782
aF0.000590444250253891
aF0.000519431458657978
aF0.0008973481002196141
aF4.722215663589356e-05
aF4.722215663589356e-05
aF0.0001180553915897339
aF0.00013985769479554555
aF0.000734252897676614
aF0.00010432968179447053
aF0.0006259780907668231
aF0.000782105427811669
aF0.00011240586009217281
aF0.0001123721766490617
aF0.00029965913773083116
aF0.00011239322643488685
aF0.0005619661321744343
aF7.495409061949556e-05
aF0.0007495409061949556
aF0.00014982956886541558
aF0.0003371165299471851
aF7.49288176232579e-05
aF8.56384345294168e-05
aF0.0007921555193971054
aF0.00014151134112319572
aF0.00010107952937371123
aF0.0009299316702381434
aF8.143654057575634e-05
aF6.107740543181725e-05
aF0.0007736471354696852
aF6.104012370798405e-05
aF4.06934158053227e-05
aF0.0008342150240091154
aF7.501312729727703e-05
aF0.00037506563648638514
aF0.00015001500150015003
aF0.0008377028326766157
aF6.201550387596899e-05
aF9.302325581395348e-05
aF0.0007751937984496124
aF7.24427702115329e-05
aF0.0007968704723268617
aF0.00014912760351941143
aF4.970920117313715e-05
aF0.0005716558134910772
aF4.968820650418623e-05
aF0.0007701672008148866
aF0.00015468587717941352
aF8.836459230786225e-05
aF0.0006848255903859323
aF0.00011042890587040063
aF0.0006625734352224039
aF0.00017673308885256042
aF0.00013254981663942032
aF3.2292440339716474e-05
aF0.0005166790454354636
asS'tca'
p32
(lp33
F4.1024799491292484e-05
aF0.0005948595926237411
aF0.00011708002419653834
aF0.0006439401330809608
aF0.0008392208907451501
aF0.00015604884328794912
aF0.00011703663246596184
aF0.0007997503218507393
aF0.0005122950819672131
aF7.071969071921926e-05
aF0.0010136489003088093
aF7.071468979822742e-05
aF0.0005657175183858194
aF0.0006366873393543518
aF9.430848304805017e-05
aF0.0005894280190503135
aF0.0006050750671255153
aF7.559721802237678e-05
aF0.0005291805261566374
aF0.00010356684203985252
aF0.0010149550519905548
aF0.00047553083714102593
aF8.280202036929701e-05
aF4.1401010184648506e-05
aF0.0009108222240622672
aF9.319230231582871e-05
aF0.0011183076277899446
aF0.00012159744297948478
aF0.0007295846578769087
aF0.00015638575152041704
aF0.0007124239791485665
aF5.2120432947063016e-05
aF0.0006601921506627982
aF0.00010432242584414229
aF5.2161212922071146e-05
aF0.0005216121292207115
aF5.2132207277656134e-05
aF0.0007298509018871859
aF5.6997919575935476e-05
aF0.0003419875174556129
aF5.095974180397486e-05
aF3.3973161202649904e-05
aF0.00011890606420927467
aF8.493434575073468e-05
aF0.0005945404202551428
aF0.0009103179834887152
aF0.0005655042412818096
aF0.00021632535333141045
aF0.00018025812964164685
aF0.000973393900064893
aF0.00014421170277968058
aF7.210585138984029e-05
aF0.0007210585138984029
aF0.00014436263894903998
aF0.0016962610076512198
aF7.214486689272058e-05
aF5.3644231456977326e-05
aF0.0010192403976825692
aF3.752838083800874e-05
aF0.0006192182838271442
aF0.0005368935340122054
aF0.00070779756989501
aF0.000572594209641055
aF7.164606842199535e-05
aF0.000644814615797958
aF7.157939944883863e-05
aF0.0009305321928349021
aF4.745408816969582e-05
aF3.163605877979721e-05
aF0.0006485392049858428
aF4.3106235316938593e-05
aF4.3106235316938593e-05
aF0.00043106235316938595
aF4.309601792794346e-05
aF0.0008188243406309257
aF4.7204323916070714e-05
aF0.0006376195536663124
aF0.0008269735132197623
aF3.495892326516343e-05
aF0.0005943016955077783
aF0.00012227714989431762
aF0.0005764494209303544
aF9.895438202988422e-05
aF0.0004617871161394597
aF0.00013186958098440642
aF0.0005934131144298289
aF6.596523632045912e-05
aF0.0006266697450443617
aF7.490356166435714e-05
aF0.0007489795154102535
aF4.3528413171697824e-05
aF0.000739983023918863
aF4.351042074576861e-05
aF0.0006309011008136449
aF6.530683327165465e-05
aF6.530683327165465e-05
aF0.0007401441104120861
aF0.0007501594088743858
aF6.531678641410843e-05
aF0.00062050947093403
aF0.00014484881405033497
aF0.000977729494839761
aF0.0008336051611032583
aF0.0004222553402881272
aF0.000696205679049182
aF0.0005964609980780701
aF8.835678469660489e-05
aF0.0004859623158313269
aF0.00015466537042356217
aF3.227159776680543e-05
aF0.0005808887598024978
aF3.2286184741549094e-05
aF4.8429277112323634e-05
aF0.0005811513253478836
aF0.0008778255008307992
aF0.0009405273223187133
asS'gca'
p34
(lp35
F3.901906081120628e-05
aF0.0005072477905456816
aF0.0005479588532715634
aF7.566013467503972e-05
aF0.0007944314140879171
aF7.563152321887763e-05
aF0.0006806837089698987
aF0.00065237651444548
aF8.681459874292461e-05
aF0.0005208875924575477
aF0.0005732052595925031
aF8.550418970529555e-05
aF0.0008835432936213875
aF0.0006269413809808782
aF5.700279313686371e-05
aF0.0008835432936213875
aF0.00015702531248037183
aF6.281012499214873e-05
aF0.0007537214999057848
aF6.278252134605726e-05
aF0.0005336514314414867
aF0.0005047045675763365
aF3.579290226748036e-05
aF0.000501100631744725
aF0.0006794207044519936
aF8.941504676406946e-05
aF3.576601870562778e-05
aF0.0006437883367013
aF7.868749262304757e-05
aF7.868749262304757e-05
aF0.00043279823733081524
aF0.0006685017695635077
aF0.00019670325347181242
aF0.0005901097604154372
aF7.865345288658172e-05
aF0.00047192071731949034
aF0.0006442376521116678
aF0.00014319467315815853
aF0.0006801746975012529
aF7.164606842199535e-05
aF0.0005731685473759628
aF4.745408816969582e-05
aF3.163605877979721e-05
aF0.0006169031462060457
aF0.00011081384856496066
aF6.332219917997753e-05
aF0.0006490525415947696
aF8.506294658046955e-05
aF5.6708631053646363e-05
aF0.0005387319950096405
aF0.0007325533794411049
aF4.7206552269455e-05
aF9.441310453891e-05
aF3.4940600978336826e-05
aF5.241090146750524e-05
aF0.0005241090146750524
aF0.0006117811571403601
aF3.494426389908096e-05
aF0.0006464688821329979
aF0.0008337675872850443
aF8.707577769553955e-05
aF0.0006530683327165466
aF4.0417104518632284e-05
aF0.0008083420903726457
aF7.242178447276941e-05
aF0.001195478916099116
aF7.24296526998153e-05
aF0.0006518668742983377
aF0.00010863661053775122
aF0.00025348542458808617
aF0.0009423362690732485
aF0.0005793532968823551
aF0.0006957558890766326
aF7.451194674879539e-05
aF0.0005712582584074314
aF4.415693374252092e-05
aF4.415693374252092e-05
aF0.0007065109398803347
aF6.624856461443335e-05
aF0.0006404027912728557
aF0.0011487904562023639
aF0.0003534037195741485
aF8.072458386477018e-05
aF0.0007265212547829316
asS'gta'
p36
(lp37
F0.00021465089958240644
aF0.0001365960270069859
aF0.00012803277639075603
aF0.00012803277639075603
aF0.00011793565430701009
aF0.0001415227851684121
aF7.562294400120997e-05
aF6.042296072507553e-05
aF0.00018126888217522659
aF5.097446179464089e-05
aF0.00016991487264880295
aF0.0002753845548605374
aF7.865654619105675e-05
aF0.00022696967117768888
aF0.00034473842971645267
aF0.00030164612600189607
aF8.623477417268513e-05
aF0.0001293521612590277
aF6.467608062951385e-05
aF0.00012940795858945326
aF0.00012940795858945326
aF0.00010426985037276472
aF0.00014988009592326138
aF0.0004496402877697842
aF0.0005617767124826786
aF0.00018725890416089285
aF0.0001123721766490617
aF7.491478443270779e-05
aF0.00015002625459455406
aF0.00018113316910592668
aF0.00018104790527573596
aF0.00028967664844117754
aF0.00010870352924124937
aF0.0002534946041862823
aF8.831386748504184e-05
aF0.00024286313558386505
aF0.0003540606328833813
aF0.00011297793702286997
aF0.00016139705288981422
aF0.00014534648988226935
aF0.00017764570985610698
aF6.45827951433738e-05
aF0.00019374838543012143
aF0.000125458708402597
aF0.00021955273970454474
asS'gcc'
p38
(lp39
F3.9018299582504195e-05
aF0.0005462561941550587
aF7.802594362625573e-05
aF9.753242953281966e-05
aF0.0006437140349166097
aF0.0008722712056202555
aF0.0004916420845624386
aF0.00014481959616021185
aF0.0008068520357497517
aF0.0001398014818957081
aF0.0005592059275828324
aF0.0006524981357196123
aF0.0003129019921426833
aF0.0008170218683725619
aF0.0002433682161109759
aF0.00010421551769058413
aF3.4738505896861375e-05
aF0.0005210775884529206
aF0.00010203387524658187
aF5.101693762329093e-05
aF0.000765254064349364
aF0.0001359134231494538
aF0.0007135454715346324
aF0.00010191082802547771
aF0.000543524416135881
aF6.278055058542864e-05
aF0.0006591957811470006
aF0.00010817047667123386
aF0.00018028412778538978
aF0.0006491398896462187
aF0.00010734220695577502
aF3.5780735651925e-05
aF0.0006261628739086876
aF7.15922107674685e-05
aF0.0006085337915234823
aF0.00046544933762978876
aF7.907138564696208e-05
aF0.0001106999399057469
aF7.907138564696208e-05
aF0.00014173540833971142
aF0.00014173540833971142
aF0.001077189103381807
aF8.61994655633135e-05
aF0.00043099732781656753
aF9.962143853357243e-05
aF9.448670099683469e-05
aF0.0007322719327254689
aF9.478448378000521e-05
aF0.00045022629795502477
aF0.00044845166163141995
aF4.7215467787247104e-05
aF0.0003069005406171062
aF0.00011815861612628793
aF4.726344645051517e-05
aF0.00018899572397174515
aF7.087339648940443e-05
aF0.000330742516950554
aF5.241914347119568e-05
aF5.241914347119568e-05
aF0.0005591375303594206
aF0.0001048327916972429
aF5.241639584862145e-05
aF0.0004892196945871335
aF0.000629007740289693
aF8.73591333973967e-05
aF0.0005765702804228182
aF0.00013190436933223414
aF0.0001978565539983512
aF0.0007914262159934048
aF0.0004948861761794787
aF9.892501483875222e-05
aF0.00046165006924751037
aF9.897070467141726e-05
aF0.000626814462918976
aF0.00019815713861091845
aF0.0006274976056012418
aF0.0002072825260830512
aF0.0005525243456039781
aF0.00036483035388544326
aF0.00015638031693077564
aF0.00039158526769203993
aF6.42288258970626e-05
aF4.28192172647084e-05
aF0.0006422882589706261
aF0.00011252813203300826
aF0.00011252813203300826
aF0.000450112528132033
aF6.203089138390919e-05
aF6.203089138390919e-05
aF0.0004962471310712735
aF0.0005891472868217054
aF0.00025371511417180136
aF0.00043494019572308805
aF4.969314483067061e-05
aF0.0005217780207220414
aF4.9679566794177554e-05
aF0.000546475234735953
aF0.0007451564828614009
aF7.454712620828467e-05
aF0.00012424521034714111
aF0.0006957731779439903
aF0.00017391304347826088
aF0.0005962732919254658
aF0.00012422360248447205
aF0.00044720496894409936
aF0.00013254103249464314
aF0.00013254103249464314
aF0.0002871722370717268
aF3.227263925643839e-05
aF3.227263925643839e-05
aF0.0005647711869876718
aF8.080285718903021e-05
aF0.0005171382860097933
aF0.00014544514294025437
aF4.848171431341812e-05
aF0.0008565102862037201
aF9.68507368726897e-05
aF4.842536843634485e-05
aF0.00048425368436344853
aF0.00011297793702286997
aF0.00016139705288981422
aF0.00016139705288981422
aF0.00021947701762086913
aF0.000595723333542359
aF0.0005018820577164366
asS'gtc'
p40
(lp41
F0.0002341235001463272
aF7.805334946435889e-05
aF0.0003317267352235253
aF9.75267223219162e-05
aF0.00015604275571506592
aF0.00018857695118214176
aF0.00018857695118214176
aF7.985944737262418e-05
aF0.00019964861843156046
aF0.00013904579820978535
aF0.00010428434865733901
aF0.00010421732786771347
aF0.0002779128743139026
aF5.2108663933856735e-05
aF0.00011402183518143724
aF0.00017103275277215586
aF7.220737959419453e-05
aF0.0001805184489854863
aF0.00021643460067816175
aF0.000143143429716576
aF0.0007157171485828801
aF9.491418176065807e-05
aF0.0001265522423475441
aF5.670541536716756e-05
aF0.00019846895378508649
aF0.0002800999741446178
aF0.00012927691114366974
aF6.463845557183487e-05
aF0.00018883066610017466
aF0.0003540574989378275
aF7.08114997875655e-05
aF4.723107804935648e-05
aF0.0003778486243948518
aF4.723107804935648e-05
aF7.083156254426973e-05
aF0.00018893769779415237
aF8.741105924721596e-05
aF0.00031467981328997746
aF3.4964423698886386e-05
aF0.0016168148746968471
aF0.00016492397004980703
aF0.0007614564585352347
aF0.00010424811050299713
aF0.0004169924420119885
aF0.00018734310015362134
aF0.00011235534249653571
aF0.0003370660274896071
aF0.0001523494461009424
aF0.00019587785927264022
aF0.0001284576517941252
aF0.0002569153035882504
aF0.00014329580348004095
aF0.00020470829068577277
aF4.0941658137154556e-05
aF0.00018753281824319257
aF0.00018753281824319257
aF7.501875468867217e-05
aF0.0002250562640660165
aF0.00012410412335949863
aF0.00010863661053775122
aF0.00021727322107550245
aF0.00010873110796999022
aF0.0002899496212533072
aF0.00024848424609879736
aF0.0002236358214889176
aF6.62939473626058e-05
aF4.419596490840386e-05
aF0.0003975440611334423
aF8.836654442628021e-05
aF8.069592162812092e-05
aF8.069592162812092e-05
aF4.841755297687255e-05
aF0.00031350910743957114
aF0.0007210709471110136
asS'gcg'
p42
(lp43
F5.854115443156539e-05
aF5.854115443156539e-05
aF0.0007024938531787847
aF9.433294814046176e-05
aF0.001014079192509964
aF0.00117175687934684
aF8.68357068426537e-05
aF0.0010420284821118443
aF0.0007562555486140795
aF4.7215467787247104e-05
aF9.443093557449421e-05
aF7.108836283500391e-05
aF0.0010426293215800573
aF0.0010153003400075558
aF0.0010365558703614125
aF0.0003672420124862284
aF0.0006215898888044754
aF0.00013813108640099454
aF0.001312245320809448
aF0.001303644991395943
aF4.044489383215369e-05
aF0.0011526794742163801
aF0.00018106757441877308
aF4.969684921975947e-05
aF0.0012424212304939866
aF0.00019913707268503152
aF6.637902422834384e-05
aF0.000442526828188959
aF9.409993413004611e-05
aF0.0005332329600702613
aF6.273328942003074e-05
aF0.0003450330918101691
aF6.272541947624274e-05
aF0.0002822643876430924
aF0.0012233375156838143
asS'gtg'
p44
(lp45
F0.00032611531437516303
aF0.00013044612575006522
aF0.0005870075658752935
aF0.00015138899402013473
aF0.00018923624252516842
aF7.569449701006736e-05
aF0.00011343012704174228
aF0.00011343012704174228
aF7.561722560399259e-05
aF0.0002646602896139741
aF7.561722560399259e-05
aF0.00023302418791070514
aF0.00013981451274642308
aF0.0001389709203349199
aF0.0002084563805023799
aF5.211409512559497e-05
aF0.0005605952502293344
aF0.0006285461896510719
aF8.493867427717188e-05
aF9.415309292910272e-05
aF9.42151874882231e-05
aF9.864202808009732e-05
aF0.00013152270410679643
aF0.00014427932477276007
aF7.213966238638003e-05
aF0.00021652051531882645
aF0.00021652051531882645
aF0.0004327599264308125
aF0.00046882325363338024
aF0.000178903678259625
aF0.00030413625304136254
aF0.00011802659532614683
aF0.00023605319065229366
aF0.00010746910263299302
aF0.00017911517105498835
aF0.00015821533106558027
aF3.164306621311605e-05
aF6.32861324262321e-05
aF0.00017400107564301306
aF0.000284729032870385
aF0.00011354281983593062
aF8.515711487694797e-05
aF0.0001983508543254654
aF0.00017001501799325606
aF0.000280256974087009
aF0.000280256974087009
aF6.46746863277713e-05
aF0.0002588159171789065
aF0.00017254394478593768
aF0.00043675751222921035
aF0.0007512229210342418
aF0.0001397624039133473
aF6.994841304537903e-05
aF0.00019235813587479235
aF0.0008291873963515755
aF0.00048369264787175237
aF0.0004143932592029836
aF7.493443237167478e-05
aF0.00033720494567253655
aF0.00017412881178852056
aF0.00017412881178852056
aF4.353220294713014e-05
aF0.00022226263361015133
aF0.0004647309611848619
aF0.00014155712841253793
aF0.0001820020222446916
aF6.0667340748230535e-05
aF0.00027906111438405013
aF0.0003100679048711668
aF9.302037146135003e-05
aF0.0002173103191357258
aF9.313299391531106e-05
aF0.0002483546504408295
aF9.302902505581741e-05
aF0.00012403870007442322
aF6.203089138390919e-05
aF0.00021710811984368216
aF0.00015506280043417584
aF0.00015506280043417584
aF0.0005793952562013399
aF0.0004707586456635886
aF0.00011507479861910241
aF0.00011507479861910241
aF0.0001812250815512867
aF0.0001448960370933855
aF0.00021734405564007825
aF4.969808413885645e-05
aF0.00017394329448599757
aF0.000532567297140275
aF0.0005487057000839197
aF6.45536117745788e-05
aF0.0003227316002646399
aF0.0003550047602911039
aF9.681948007939198e-05
aF6.457445434586077e-05
aF0.00012914890869172155
aF4.8430840759395585e-05
aF0.0001937953198430258
aF0.00020994492982994462
aF0.0001452807954930669
aF0.00030670390159647453
aF0.00015688243230523047
aF0.00015678896205707118
aF0.00021950454687989966
aF0.0002507679769293461
aF0.0005328819509748605
aF9.40851784482218e-05
aF0.00012544690459762904
aF9.407632726018377e-05
aF0.0002508702060271567
asS'acg'
p46
(lp47
F0.0010781025395304265
aF5.701091759071862e-05
aF0.0010261965166329353
aF0.0007081595719568809
aF0.0013379505745317172
aF9.492919863934815e-05
aF4.5360731214987186e-05
aF0.0009298949899072374
aF0.0008291301043322048
aF0.00010425897930459261
aF0.0008340718344367409
aF6.626027034190299e-05
aF0.0013472921636186943
aF0.0010656970912738214
asS'ccg'
p48
(lp49
F0.001305848335043373
aF9.321836401771148e-05
aF0.0013050570962479609
aF0.9980157298506386
aF7.086502574762602e-05
aF0.0010629753862143904
aF0.00011810837624604337
aF0.0013228138139556858
aF4.723107804935648e-05
aF0.0014641634195300508
aF9.443539438581581e-05
aF0.0008263097008758883
aF0.00015733990664498873
aF3.4964423698886386e-05
aF0.0015733990664498873
aF0.0010066997604748847
aF0.0002764148987630433
aF0.0013820744938152166
aF6.0631783180743344e-05
aF4.042118878716223e-05
aF0.0013136886355827725
aF0.0012894906511927789
aF0.0002250562640660165
aF0.00017392600690734712
aF0.001316868338012771
aF9.937888198757764e-05
aF0.0010683229813664597
aF0.00017672137665952417
aF6.627051624732157e-05
aF0.00024299189290684576
aF8.836459230786225e-05
aF4.418229615393112e-05
aF0.001413833476925796
aF0.0001776084218684406
aF6.458488067943295e-05
aF0.001582329576646107
aF0.00011312400006464228
aF0.0011150794292086167
aF6.28140703517588e-05
aF6.28140703517588e-05
aF0.001821608040201005
aF6.273525721455458e-05
aF0.0010037641154328732
asS'ctg'
p50
(lp51
F3.9049534334303066e-05
aF0.00017572290450436378
aF0.00019566918862509784
aF0.00013044612575006522
aF0.00014155617420846505
aF0.0002831123484169301
aF0.00011354174551510106
aF7.576618555138841e-05
aF0.00022729855665416524
aF7.565441065214103e-05
aF0.00011348161597821153
aF0.00013987970345502866
aF0.00018650627127337157
aF0.00010423905489923558
aF0.0001911049339819319
aF0.00012158477063901482
aF0.0001563232765358762
aF0.00022801767136953113
aF0.0002208968411751712
aF0.0006117143294081664
aF6.796825882312959e-05
aF0.00020398102976423193
aF8.499209573509664e-05
aF0.00011896668932698845
aF0.00013596193065941537
aF6.798558705554423e-05
aF0.00013597117411108845
aF9.417378201908589e-05
aF6.278252134605726e-05
aF6.278252134605726e-05
aF0.00010816657652785289
aF0.00010816657652785289
aF0.00028851702250432774
aF7.21422645456841e-05
aF0.00036073734713754915
aF0.00017883009352813892
aF0.00017883009352813892
aF0.00012521017422101384
aF0.00030433225921947725
aF0.0005191550304332259
aF5.3705692803437166e-05
aF0.00011798481928658512
aF0.00019667230460606536
aF0.00023600676552727845
aF0.0001967574374311349
aF0.00023610892491736187
aF0.00047221784983472373
aF0.000143184421534937
aF0.00010738831615120275
aF0.00018981635267878327
aF0.0003321786171878707
aF6.328212754512807e-05
aF0.0001898463826353842
aF4.744658305524364e-05
aF0.0002372329152762182
aF0.00011071569790431
aF0.0003163305654408857
aF4.747586643456243e-05
aF0.00020572875454977053
aF9.487215976471705e-05
aF9.487215976471705e-05
aF8.505812305075135e-05
aF0.00011341083073433512
aF5.667970299835629e-05
aF0.00017003910899506886
aF0.00017017897155174858
aF0.00021567993098242207
aF0.00028038391027714873
aF0.0001510411047577948
aF0.00010788650339842486
aF0.00011808327232364263
aF0.00033063316250619935
aF0.0001182088987658991
aF7.092533925953946e-05
aF0.00014169992678837116
aF7.084996339418558e-05
aF0.0002096839015184609
aF0.00015726292613884568
aF8.736218615134624e-05
aF0.00022714168399350025
aF0.00029711449394410753
aF0.0006291836342345806
aF0.0002638087386644683
aF0.000923330585325639
aF6.595218466611707e-05
aF6.599135513247765e-05
aF0.00023082503462375518
aF0.00013190001978500296
aF0.00026374785704866147
aF0.0002072395689416966
aF0.00013815971262779773
aF0.00013818835072203412
aF0.0002072825260830512
aF0.00010426985037276472
aF0.0002606746259319118
aF0.000364963503649635
aF0.0001563721657544957
aF0.0005733944954128441
aF0.0005212677231025855
aF7.494847292486416e-05
aF7.494847292486416e-05
aF0.00018726591760299626
aF0.00011235955056179776
aF0.00011237638597542703
aF0.00022475277195085406
aF0.00018733608092918696
aF7.491478443270779e-05
aF0.00037457392216353895
aF0.00011237638597542703
aF0.00015003188177487717
aF0.00022504782266231574
aF0.000225022502250225
aF7.500750075007501e-05
aF0.00011251969094591554
aF0.00015002625459455406
aF9.313299391531106e-05
aF0.00018626598783062212
aF9.305210918114144e-05
aF0.00021712158808933002
aF0.00018113316910592668
aF0.00017406873228228975
aF0.00047247227333764363
aF0.00012421743018980422
aF0.0002235913743416476
aF0.00014904240256352933
aF0.00012420200213627443
aF7.453416149068323e-05
aF9.937888198757764e-05
aF8.836068832976209e-05
aF0.00022090172082440523
aF0.00011304361868772508
aF0.00016149088383960724
aF0.00012543116964565694
aF0.00018814675446848542
aF0.00023225720826835662
aF0.00026543680944955044
asS'gtt'
p52
(lp53
F0.00019201228878648233
aF0.00037625811306556296
aF0.00037625811306556296
aF0.00018874156561128676
aF9.437078280564338e-05
aF7.074136955291455e-05
aF0.00023580456517638182
aF0.00015121729925903524
aF0.00011341297444427643
aF8.275234292570908e-05
aF8.275234292570908e-05
aF0.00012405152273244153
aF0.00016540203030992207
aF0.0001864541089824267
aF0.00014427932477276007
aF0.0001803491559659501
aF0.00018033614657721994
aF0.0005770756690471038
aF7.158708568974158e-05
aF0.0002147612570692247
aF0.00017400933322787312
aF0.00022146642410820217
aF0.00034035794310349716
aF8.500028333427779e-05
aF0.00019833399444664816
aF0.0003883914122343295
aF0.0001510411047577948
aF0.00012939400474444685
aF0.0003450506793185249
aF6.469700237222342e-05
aF0.000172372928831527
aF0.0008834112602615759
aF8.61864644157635e-05
aF8.736218615134624e-05
aF0.000279558995684308
aF0.00020877916383944882
aF0.0003131687457591732
aF7.492039707810451e-05
aF0.00011238059561715677
aF0.00028287927582905387
aF6.527983288362781e-05
aF6.068452140140788e-05
aF0.00024273808560563152
aF6.068452140140788e-05
aF0.00022224018102472926
aF0.0005252949733311783
aF0.0005250721974271463
aF0.0005625773543862281
aF7.502156870100153e-05
aF0.00022506470610300462
aF0.00030008627480400613
aF7.501031391816375e-05
aF7.501031391816375e-05
aF0.00026253609871357313
aF0.0001739087227646518
aF9.937888198757764e-05
aF0.00022360248447204968
aF4.418034416488104e-05
aF0.0002871722370717268
aF3.227263925643839e-05
aF0.0003227263925643839
aF0.00019378906060752872
aF0.00027453450252733235
aF0.0002905053178612353
asS'gct'
p54
(lp55
F6.153719923693873e-05
aF0.00030768599618469363
aF3.9049534334303066e-05
aF3.9049534334303066e-05
aF0.0006638420836831521
aF0.00011338725527250737
aF0.0004535490210900295
aF7.561722560399259e-05
aF0.0007183636432379296
aF0.0004193653604212292
aF5.210142410559222e-05
aF3.473428273706148e-05
aF0.0006773185133726988
aF5.211952744961779e-05
aF0.0006254343293954135
aF3.3996838294038655e-05
aF0.0003739652212344252
aF0.0006802721088435374
aF8.493434575073468e-05
aF0.0006964616351560243
aF0.0001569267465946896
aF0.00025108279455150333
aF0.00010821339681852613
aF0.0006492803809111568
aF0.00012517882689556508
aF3.57653791130186e-05
aF0.0008047210300429185
aF0.0007690794298080879
aF7.152436298614215e-05
aF5.364327223960662e-05
aF0.0008761734465802414
aF7.865345288658172e-05
aF0.00023596035865974517
aF0.00011805446245868093
aF0.0007476782622383127
aF0.00015740594994490792
aF0.00011805446245868093
aF0.0009837871871556745
aF7.157939944883863e-05
aF0.00046526609641745105
aF0.0007873452150883973
aF3.307206402751596e-05
aF0.0006118331845090452
aF6.327411930335195e-05
aF0.0007434709018143854
aF9.488416225191745e-05
aF0.0004902348383015735
aF0.00011069468823631735
aF6.325410756360992e-05
aF0.00026882995714534215
aF5.668291576918717e-05
aF0.0004818047840380909
aF0.0006798674258519589
aF5.667167266441869e-05
aF5.667167266441869e-05
aF0.0004250375449831402
aF0.0005819467195447883
aF7.084327106996954e-05
aF0.0008265048291496446
aF4.722884737997969e-05
aF0.0004959028974897868
aF3.494304284017052e-05
aF3.494304284017052e-05
aF0.0006464462925431547
aF5.242097537961523e-05
aF0.000611578046095511
aF3.4941821866592126e-05
aF6.988364373318425e-05
aF0.0005066564170655858
aF0.0006248481271913076
aF0.000626401160490571
aF0.0006907985631389886
aF0.00027626217280198907
aF0.0008287865184059672
aF0.0003371291579262811
aF0.00018732906223071447
aF6.068574896328512e-05
aF0.0005057145746940427
aF6.064771762422674e-05
aF0.0005256135527432985
aF0.0006750675067506751
aF7.501031391816375e-05
aF0.0006375876683043919
aF0.0008071526139326959
aF0.0005892934681471372
aF0.0007133995037220844
aF0.0006879820400477966
aF0.0007241653993772177
aF9.946784701845128e-05
aF7.460088526383847e-05
aF0.0007460088526383846
aF0.0005216224943490897
aF0.00013254103249464314
aF0.00044180344164881046
aF0.00018814675446848542
aF0.0006271558482282847
aF6.635920236238761e-05
aF0.000497694017717907
asS'acc'
p56
(lp57
F0.00011702293649555314
aF0.0006046185052270245
aF7.802289972106814e-05
aF5.85171747908011e-05
aF0.000585171747908011
aF0.0004479140005119017
aF0.000899165061014772
aF4.715868898844612e-05
aF0.0008488564017920301
aF0.0001414227124876255
aF0.0005185499457879602
aF7.07430377060391e-05
aF0.0005895253142169925
aF7.564868749527195e-05
aF0.0006051894999621756
aF7.55886465852829e-05
aF0.00011338296987792433
aF0.0005291205260969802
aF0.0004159261920066548
aF0.00047545219638242894
aF0.0008889256403365514
aF6.200781298443604e-05
aF4.133854198962403e-05
aF0.0006407474008391724
aF9.349289454001496e-05
aF0.0007011967090501122
aF9.828009828009828e-05
aF0.0003931203931203931
aF0.00046609182008855747
aF0.00018643672803542297
aF0.0007923560941505476
aF5.2091472625931135e-05
aF0.0006598253199284611
aF3.473428273706148e-05
aF0.0005731156651615144
aF5.1023879175454114e-05
aF5.1023879175454114e-05
aF8.503979862575686e-05
aF3.397258412461144e-05
aF5.095887618691716e-05
aF3.398470688190314e-05
aF0.0007476635514018691
aF5.097879282218597e-05
aF6.797172376291462e-05
aF9.417378201908589e-05
aF0.0005650426921145153
aF0.00018850141376060322
aF9.425070688030161e-05
aF0.0005026704366949419
aF0.0005655575454802526
aF0.00010821730033908087
aF0.00014428973378544116
aF7.868749262304757e-05
aF7.868749262304757e-05
aF0.0007475311799189519
aF4.7457090880329036e-05
aF4.7457090880329036e-05
aF6.325910931174089e-05
aF0.0006009615384615385
aF0.00039549452635575524
aF0.00011073846737961146
aF0.00020565715370499273
aF4.7243350498417346e-05
aF0.0004724335049841735
aF0.00011841606669192877
aF4.7366426676771504e-05
aF0.0006157635467980296
aF0.00042551179613257057
aF7.092198581560284e-05
aF0.00011820330969267139
aF0.0007092198581560284
aF4.722550177095632e-05
aF7.354833964623249e-05
aF0.0006987092266392086
aF9.895438202988422e-05
aF0.0005607414981693439
aF0.0008905306903261981
aF0.00013820744938152166
aF0.000414622348144565
aF0.00020847448793453902
aF0.0001497959030820507
aF7.489795154102535e-05
aF0.00044938770924615214
aF4.3542628233040145e-05
aF0.0006749107376121222
aF0.00015007128385983342
aF0.0009754633450889173
aF7.500468779298706e-05
aF0.0008625539096193513
aF0.00012401947105695595
aF0.0005580876197563017
aF0.0007133110035975685
aF0.0001448593053996306
aF0.00047079274254879945
aF0.0007244277021153289
aF0.0001324971292288667
aF0.0007728999205017224
aF0.0001104557403848278
aF0.0007952813307707602
aF4.4267374944665784e-05
aF0.00013280212483399734
aF8.069331697948776e-05
aF3.2277326791795104e-05
aF0.0005971305456482094
aF0.00012537612838515547
aF6.268806419257773e-05
aF0.0010343530591775327
asS'gat'
p58
(lp59
F0.00018607343698312935
aF0.0001240489579887529
aF0.00041940444568712426
aF0.00023300246982618016
aF0.00032618825722274
aF9.319664492078285e-05
aF0.0003730995242981065
aF0.00018654976214905325
aF0.0003262034577566522
aF0.00023300246982618016
aF6.948546016745995e-05
aF0.0012681096480561442
aF0.0004863982211722197
aF0.0002565491291582338
aF5.701091759071862e-05
aF6.796825882312959e-05
aF0.0006117143294081664
aF0.00039081748823299517
aF0.00021969055016790636
aF0.00015692182154850454
aF0.00010816267666570522
aF0.00028843380444188056
aF0.0002164424082825295
aF0.0002164424082825295
aF0.00014423250279450473
aF0.0002164424082825295
aF7.214746942750983e-05
aF3.752838083800874e-05
aF0.0001313493329330306
aF0.0002064060946090481
aF0.0005364135390777264
aF0.0004827721851699537
aF0.0001966336322164543
aF0.0001966336322164543
aF0.00011800338276363923
aF0.0001573378436848523
aF0.00021473819834651588
aF0.00010736909917325794
aF0.00025054583199112353
aF0.00017896130856508822
aF7.157683773530885e-05
aF0.000751556796220743
aF0.00026881720430107527
aF0.0001265022137887413
aF0.0005208579951702259
aF0.0001894029073346276
aF0.00015727117044699962
aF0.0002096948939293328
aF0.00022716946842344388
aF0.00013979659595288855
aF0.0002966869952200429
aF9.889566507334761e-05
aF0.00027626217280198907
aF0.0002071966296014918
aF0.00010424267695194412
aF0.0003127280308558324
aF0.00010424267695194412
aF0.00038390818532662506
aF0.00028287971550382897
aF0.0002828225692410254
aF0.0002424193450637361
aF0.00018182920176980423
aF0.0001010162232054468
aF0.00020209369063497838
aF0.0002829311668889697
aF0.00024254183846713557
aF0.00024254183846713557
aF7.502156870100153e-05
aF0.00011253235305150231
aF0.00011252391133115787
aF0.00022504782266231574
aF0.00018756799339760664
aF0.00026259519075664926
aF0.0002356020942408377
aF0.00010471204188481675
aF0.0002871088142405972
aF0.00019876764062810574
aF0.00015459363957597173
aF0.00017667844522968197
aF3.2285142377477883e-05
aF0.00016142571188738943
aF6.457028475495577e-05
aF0.0002746010208696776
aF9.691800736576855e-05
aF8.482771491101573e-05
aF0.0011197258368254076
aF3.227993156654508e-05
aF0.0003227993156654508
aF0.00019367958939927048
aF0.00046848243998578396
aF0.00012923653516849214
aF6.270378730875344e-05
aF0.00034487083019814395
aF0.0001567594682718836
asS'cga'
p60
(lp61
F7.074971110534632e-05
aF0.0001179161851755772
aF0.0003537485555267316
aF0.0001939362596160062
aF0.00010774236645333678
aF0.0003878725192320124
aF0.00015633956954505185
aF0.0002605659492417531
aF0.00010429159931167545
aF0.00010429159931167545
aF0.0003650205975908641
aF0.0001872378669862193
aF0.00014979029358897544
asS'cgc'
p62
(lp63
F0.00012156998957971518
aF0.00010420284821118444
aF0.0003473428273706148
aF0.00021462681762086174
aF0.00028616909016114896
aF0.00011805446245868093
aF0.0001967574374311349
aF0.0001416464033617413
aF0.00025983842774129543
aF9.448670099683469e-05
aF0.00021259507724287808
aF0.00016587284661500912
aF0.00047392241890002604
aF0.00011807211844994923
aF0.00018891538951991876
aF0.0004250596264198172
aF6.942756968792307e-05
aF0.00017356892421980768
aF0.00013820744938152166
aF0.0002073111740722825
aF0.00013815971262779773
aF0.0002072395689416966
aF0.0002072825260830512
aF0.0002072825260830512
aF0.0004143932592029836
aF0.00020722525385093597
aF0.0001381501692339573
aF0.0002236358214889176
aF4.969684921975947e-05
aF0.00012424212304939868
aF0.00024844103252093117
aF4.968820650418623e-05
aF0.0003726615487813967
aF0.0006956521739130435
aF9.937888198757764e-05
aF0.00044720496894409936
aF0.000508073957896132
aF6.627051624732157e-05
aF6.627051624732157e-05
aF0.00039756162205141797
aF0.00013252054068380598
aF0.0002871278381482463
aF0.00014544514294025437
aF0.00021008742869147852
aF0.0007110651432634657
aF9.409993413004611e-05
aF6.273328942003074e-05
aF0.0001254665788400615
aF0.0002195389681668496
aF0.00012545083895248549
aF0.00012545083895248549
asS'act'
p64
(lp65
F0.0006584516978647352
aF4.72411186696901e-05
aF4.72411186696901e-05
aF0.0006849962207105064
aF0.0006434032245855727
aF0.0004959907415061585
aF0.0005591798695246971
aF0.00012166507343356218
aF0.0004866602937342487
aF0.0001389685062622683
aF0.0007122135945941251
aF8.684626474215344e-05
aF0.0009726781651121186
aF0.00012170949681816602
aF3.477414194804743e-05
aF0.0004346767743505929
aF0.00011896668932698845
aF0.0006798096532970768
aF0.0007211365111415591
aF0.00010819388343912291
aF8.944863859172063e-05
aF0.0006976993810154209
aF8.948866178655165e-05
aF7.159092942924132e-05
aF0.0007338070266497235
aF7.86503598253962e-05
aF0.0002359510794761886
aF7.86720163637794e-05
aF0.0009440641963653528
aF0.0006294008890287558
aF7.86503598253962e-05
aF0.0006292028786031696
aF7.871536523929471e-05
aF7.157427620513188e-05
aF0.00014314855241026375
aF0.000608381347743621
aF4.747962332832159e-05
aF0.0008071535965814671
aF3.162405325490568e-05
aF6.324810650981136e-05
aF0.00014204141927786143
aF0.0015340473282009035
aF8.551637638607793e-05
aF0.0005701091759071862
aF8.622733837763262e-05
aF0.00047425036107697947
aF4.7217697192907904e-05
aF5.2431969519548384e-05
aF3.4954646346365594e-05
aF0.0005942289878882151
aF0.0001649620587264929
aF0.0004948861761794787
aF0.0005527534028881365
aF0.00010423181154888472
aF0.00015641293013555788
aF0.0005735140771637122
aF0.0009902538176890603
aF7.493162489228579e-05
aF0.00011239743733842868
aF0.00022479487467685737
aF0.00011235955056179776
aF7.49063670411985e-05
aF0.00011234692731153803
aF0.0007864284911807662
aF0.0005244820739519724
aF0.0006742078058281519
aF0.0006532247528633019
aF4.353599338252901e-05
aF0.0006748078974291996
aF6.061218304879281e-05
aF0.0004444893423578139
aF4.418229615393112e-05
aF0.0007290078865398635
aF0.00017671356939320977
aF0.0007289434737469903
aF4.844726515188218e-05
aF0.0006782617121263505
aF9.404683532399135e-05
aF0.00043888523151195964
asS'aca'
p66
(lp67
F0.0007681966583445362
aF4.714979489839219e-05
aF0.0009194210005186478
aF4.723442444853809e-05
aF0.0008738368522979548
aF4.1356492969396195e-05
aF6.203473945409429e-05
aF0.0004962779156327543
aF0.0007032930663577693
aF4.1353072533289225e-05
aF0.0005789430154660492
aF6.199371796991238e-05
aF0.000805918333608861
aF0.0008273522659110183
aF0.000661320988674878
aF0.00070298769771529
aF0.0006989748369058714
aF3.4742126565567075e-05
aF5.2113189848350616e-05
aF0.0008511821008563935
aF5.705482969133337e-05
aF0.000542020882067667
aF0.0005946414312169762
aF3.3997416196369076e-05
aF0.0005609573672400897
aF3.3988172116103597e-05
aF3.3988172116103597e-05
aF0.0006908029013721858
aF0.0006852526418292639
aF3.578265614656576e-05
aF0.0005546311702717693
aF7.87308585600126e-05
aF0.00011799410029498526
aF7.156659271452087e-05
aF0.000500966149001646
aF0.0007158196134574087
aF3.161855376735068e-05
aF0.0003161855376735068
aF0.0001583054979499438
aF0.0005065775934398202
aF7.91527489749719e-05
aF3.166109958998876e-05
aF0.0005857303424147921
aF7.91527489749719e-05
aF0.0007598663901597303
aF9.492168960607498e-05
aF0.0006328112640404999
aF7.911392405063291e-05
aF0.00041139240506329113
aF0.0007118901474403595
aF4.744433198380567e-05
aF4.744433198380567e-05
aF0.0006009615384615385
aF0.00011332086803784917
aF5.666043401892458e-05
aF0.0011898691143974163
aF6.463427771194657e-05
aF0.0008187008510179899
aF0.0006847697756788666
aF4.7213238592101225e-05
aF0.00044852576662496167
aF0.0003127443315089914
aF0.0003127117319018085
aF0.00010423724396726951
aF0.00010423724396726951
aF0.0008338979517381561
aF0.0007296987386636089
aF0.0005243249316505
aF0.00022504782266231574
aF0.0008489149126052981
aF8.702084149153722e-05
aF0.0008049427837967193
aF4.0941658137154556e-05
aF0.000593654042988741
aF0.00048758532743230063
aF0.0008625862586258626
aF0.00011251547087724562
aF0.0005625773543862281
aF9.301171947665406e-05
aF0.0004340546908910523
aF6.943319369546601e-05
aF4.628879579697734e-05
aF4.4185224460940264e-05
aF0.0006848709791445741
aF6.623540061378138e-05
aF0.0006181970723952929
aF4.841833440929632e-05
aF0.0005971594577146546
aF9.688827167471377e-05
aF3.229609055823793e-05
aF0.0005490335394900447
aF9.687419271506071e-05
aF0.0006135365538620512
aF3.2288269671628296e-05
aF3.2288269671628296e-05
aF6.457653934325659e-05
aF4.841442749939482e-05
aF4.841442749939482e-05
asS'cgg'
p68
(lp69
F0.0003401874811006955
aF0.00041578469912307225
aF0.0002798246432235799
aF0.00013991232161178995
aF7.211625139725237e-05
aF0.0006129881368766452
aF0.00023621675249208674
aF4.7243350498417346e-05
aF7.086502574762602e-05
aF0.00025972799395542124
aF4.7223271628258404e-05
aF0.0001416530915787237
aF7.082654578936186e-05
aF7.082654578936186e-05
aF0.0001397941531095462
aF6.98970765547731e-05
aF0.0002096912296643193
aF0.00019222703760659864
aF3.4950370473927024e-05
aF0.0006291066685306865
aF0.00048349219505456557
aF0.00010105297196790558
aF0.0005456860486266901
aF0.00018612153736389863
aF0.0005273443558643794
aF0.00014907943449201183
aF4.969314483067061e-05
aF0.00019877257932268244
aF0.00037540853281512235
aF4.416570974295557e-05
aF8.833141948591114e-05
aF0.00011297793702286997
aF6.455882115592569e-05
aF0.00045191174809147987
aF0.0002821670428893905
aF0.0001567594682718836
aF6.272541947624274e-05
aF0.00031362709738121374
aF0.0003450439146800502
aF9.410288582183188e-05
aF0.00012547051442910915
aF0.00021957340025094104
aF9.410288582183188e-05
asS'ggg'
p70
(lp71
F5.852174082671713e-05
aF0.00025359421024910756
aF0.00013044612575006522
aF0.00019566918862509784
aF0.00013044612575006522
aF0.00026089225150013044
aF0.0002560491614389963
aF0.00019225839528326071
aF0.0003204306588054345
aF9.430848304805017e-05
aF0.00028292544914415053
aF0.0003024003024003024
aF0.0003024003024003024
aF7.564582624153713e-05
aF0.00011346873936230568
aF7.559436066069472e-05
aF0.00015118872132138944
aF0.00018898590165173677
aF0.0003023431594860166
aF0.00015132026935007944
aF0.00022698040402511916
aF0.00018905021173623715
aF9.327488107452663e-05
aF0.00018654976214905325
aF0.00018654976214905325
aF0.00013991232161178995
aF0.0003730995242981065
aF9.327488107452663e-05
aF0.0003730995242981065
aF7.160759040458288e-05
aF7.158964813687941e-05
aF7.158964813687941e-05
aF0.00014181580962645715
aF5.6726323850582865e-05
aF0.00017017897155174858
aF0.00011345264770116573
aF5.6726323850582865e-05
aF0.0002836316192529143
aF0.00011800245445105258
aF7.080147267063155e-05
aF9.440196356084207e-05
aF0.00011800245445105258
aF9.440196356084207e-05
aF0.0001416029453412631
aF0.00016526194017517766
aF7.082654578936186e-05
aF9.441310453891e-05
aF0.00011805260424044955
aF0.0002620407735443635
aF3.4938769805915136e-05
aF0.00034938769805915133
aF0.00027637670144406825
aF0.00013818835072203412
aF0.00015641293013555788
aF0.0002606474482614815
aF7.496251874062968e-05
aF8.081297856435743e-05
aF4.0406489282178716e-05
aF0.00026264218033416166
aF0.00023550569495589622
aF6.42288258970626e-05
aF0.00023550569495589622
aF0.00014140557137951235
aF0.00010100397955679453
aF0.00014140557137951235
aF4.0412204485754696e-05
aF0.0002828854314002829
aF9.302902505581741e-05
aF0.00025348542458808617
aF0.00021732831063459867
aF7.24427702115329e-05
aF0.00018110692552883223
aF0.00014484881405033497
aF0.0002484718978283556
aF0.0002484718978283556
aF4.841599018769265e-05
aF9.68319803753853e-05
aF4.841599018769265e-05
aF0.00015672016048144433
aF0.00031344032096288865
aF0.00012547051442910915
aF6.273525721455458e-05
aF0.00015683814303638644
aF0.00012547051442910915
aF9.410288582183188e-05
aF0.00012547051442910915
aF0.0002823086574654956
aF9.410288582183188e-05
aF0.00012547051442910915
asS'gga'
p72
(lp73
F0.00012803277639075603
aF0.0003840983291722681
aF0.00018863920394255937
aF9.431960197127968e-05
aF0.0003536985073922988
aF7.561150807152848e-05
aF0.0002646402782503497
aF0.00034062523654530315
aF0.00011343870528624367
aF0.00022687741057248733
aF0.0004535490210900295
aF0.00011338725527250737
aF0.0002645702623025172
aF0.00013991232161178995
aF0.00012172854534388314
aF8.694896095991653e-05
aF8.694896095991653e-05
aF0.0002565198802907225
aF0.00011400883568476557
aF0.00019951546244833976
aF0.0002565564424173318
aF5.701254275940707e-05
aF0.00011402508551881414
aF0.00017101812792155968
aF8.495310588555118e-05
aF0.00010194372706266142
aF0.0001529155905939921
aF0.00011893838991402454
aF0.0002548679783871954
aF0.00015695630336514315
aF0.00012556504269211453
aF9.41501380868692e-05
aF9.41501380868692e-05
aF0.00028846500558900946
aF0.00021633315305570578
aF0.00028844420407427436
aF0.00021645021645021645
aF0.00010822510822510823
aF0.00036075036075036075
aF0.00021633315305570578
aF7.211105101856859e-05
aF0.00014423770373575654
aF0.0003605942593393913
aF0.00039329819869425
aF0.00015736879376819577
aF0.00043276418286253835
aF0.00015733165512901197
aF7.866582756450598e-05
aF7.15922107674685e-05
aF0.0002147766323024055
aF7.157427620513188e-05
aF0.00021472282861539563
aF0.0002862971048205275
aF7.157427620513188e-05
aF0.00010736141430769781
aF0.00011071569790431
aF9.489916963226571e-05
aF0.00033214709371293
aF4.3095089314572604e-05
aF0.0002801180805447219
aF8.738661586591398e-05
aF5.2431969519548384e-05
aF0.00019225055490501076
aF6.987876035079137e-05
aF5.240907026309353e-05
aF0.0004716816323678418
aF9.892501483875222e-05
aF9.892501483875222e-05
aF0.00013815971262779773
aF0.0001563640154279162
aF0.0001563640154279162
aF0.00010423181154888472
aF0.00010423181154888472
aF0.00041224749840722556
aF0.00018183654914637843
aF6.061218304879281e-05
aF0.00024244873219517123
aF4.040077569489334e-05
aF0.00034340659340659343
aF0.00010105297196790558
aF0.00012126356636148669
aF0.0003840012934780412
aF0.00018184757132465852
aF8.082114281095935e-05
aF0.00018184757132465852
aF7.500750075007501e-05
aF0.00015001500150015003
aF0.00010862874316544157
aF0.00018104790527573596
aF0.00018104790527573596
aF7.241916211029438e-05
aF7.241916211029438e-05
aF0.00019871333118060558
aF4.9678332795151396e-05
aF0.00014903499838545418
aF0.00012419274714356682
aF4.9677098857426726e-05
aF0.0001987083954297069
aF4.9680800854509775e-05
aF4.9680800854509775e-05
aF0.0001987232034180391
aF0.00011042890587040063
aF0.00024299726075815146
aF4.418132013784572e-05
aF0.0002650879208270743
aF0.00017675651789659743
aF0.00024304021210782146
aF6.630420368651372e-05
aF4.420280245767582e-05
aF0.0005010829858080367
aF0.00012912597853280606
aF3.2281494633201515e-05
aF0.0001936889677992091
aF9.68976599215129e-05
aF8.074804993459408e-05
aF0.0003391418097252951
aF0.0001291801902178301
aF3.2295047554457525e-05
aF6.269395943700824e-05
aF6.269395943700824e-05
aF0.00012543510301357835
aF0.00012543510301357835
aF0.00034494653328734045
asS'ggc'
p74
(lp75
F0.00015604275571506592
aF7.802137785753296e-05
aF0.0003510962003588983
aF0.0001170389154393836
aF0.00015605188725251147
aF0.000292597288598459
aF0.00018866589628092353
aF9.433294814046176e-05
aF0.00045358330813426064
aF0.00015119443604475356
aF0.00018899304505594195
aF7.55886465852829e-05
aF0.00011338296987792433
aF0.0003023545863411316
aF0.00011344728482831644
aF0.00022689456965663287
aF0.00015130882130428205
aF0.00011348161597821153
aF0.0001863932898415657
aF0.00013979496738117427
aF0.00015629070070330816
aF0.00013892506729182947
aF0.0001041938004688721
aF0.00010417570969702231
aF3.4725236565674104e-05
aF0.00019098880111120757
aF0.0001994699797680449
aF5.699142279086997e-05
aF8.548713418630496e-05
aF0.00013598735317615462
aF6.799367658807731e-05
aF0.00013598735317615462
aF0.0002041024594346362
aF0.0004082049188692724
aF8.504269143109841e-05
aF0.00014421170277968058
aF7.210585138984029e-05
aF0.00014420650371331747
aF7.210325185665874e-05
aF8.94822556687009e-05
aF0.0001610680602036616
aF0.00039419741406496373
aF7.883948281299275e-05
aF0.00011825922421948912
aF0.00011798481928658512
aF7.865654619105675e-05
aF0.000314626184764227
aF0.0001179755397380943
aF0.00021482277121374866
aF7.160759040458288e-05
aF7.158708568974158e-05
aF0.00017896771422435393
aF0.00014317417137948315
aF7.1571714858288e-05
aF0.000143143429716576
aF7.914523149980213e-05
aF0.00011080332409972299
aF4.748713889988128e-05
aF0.00011069468823631735
aF3.162705378180496e-05
aF8.498583569405099e-05
aF5.6657223796033995e-05
aF0.00014164305949008498
aF8.497379974507861e-05
aF8.497379974507861e-05
aF0.0001982721994051834
aF0.0001700487473075615
aF5.668291576918717e-05
aF0.0001417072894229679
aF0.00019389865563598758
aF0.00019389865563598758
aF0.00019389865563598758
aF7.086502574762602e-05
aF0.00011810837624604337
aF0.0001180080245456691
aF0.0001180080245456691
aF0.00014166981488477522
aF0.00014166981488477522
aF0.00010483828694239136
aF0.00015725743041358704
aF0.00022714962170851462
aF0.00019215652022010657
aF3.493754913092847e-05
aF6.987509826185693e-05
aF5.241639584862145e-05
aF0.00024460984729356676
aF8.736065974770241e-05
aF0.0001319827102649553
aF0.0001649783878311941
aF6.599135513247765e-05
aF0.00029682398337785694
aF6.596088519507932e-05
aF0.00027626217280198907
aF0.00013813108640099454
aF0.0004689698296076286
aF0.0001042535446205171
aF0.0002085070892410342
aF0.00010884472211942443
aF0.0001741515553910791
aF0.0002829962775105035
aF6.0609733923268075e-05
aF0.00012121946784653615
aF0.00024238996505544672
aF8.079665501848223e-05
aF0.00020199163754620558
aF0.00014144271570014144
aF0.00024247322691452818
aF0.00016164881794301878
aF0.00024806201550387597
aF0.00014485405953501847
aF0.00015343306482546988
aF0.00011507479861910241
aF0.00030686612965093976
aF0.00014483307987544355
aF7.241653993772178e-05
aF0.00018104134984430444
aF0.00014483832422058877
aF7.465657973322716e-05
aF0.00012442763288871193
aF0.00027374079235516625
aF0.00012424212304939868
aF0.00019878739687903787
aF0.00017393897226915814
aF0.00017390440226572592
aF0.00014904980747733202
aF0.00022357471121599803
aF4.969314483067061e-05
aF0.00014907943449201183
aF8.831191769329271e-05
aF6.623393826996953e-05
aF4.4155958846646355e-05
aF0.0002429435929148814
aF6.625734352224038e-05
aF0.00022085781174080126
aF8.067118425298483e-05
aF0.00011293965795417877
aF0.00011293965795417877
aF0.00019369209413435775
aF6.456403137811925e-05
aF0.00012544690459762904
aF0.0002822555353446654
aF0.0001881703568964436
aF6.271755150678917e-05
aF6.271755150678917e-05
aF0.00021957340025094104
asS'gag'
p76
(lp77
F0.0002730908026918951
aF0.00019506485906563932
aF0.00017554810017944916
aF0.00013653741125068268
aF0.00012803277639075603
aF0.0001650398453340878
aF0.0002121940868581129
aF0.00018902162407379404
aF0.00022682594888855285
aF0.0004536518977771057
aF0.00030243459851807047
aF0.000264810471362639
aF0.00011349020201255958
aF0.00022698040402511916
aF0.00034029038112522685
aF0.00041591046581972174
aF0.00012798244812140048
aF9.141603437242893e-05
aF0.00028499772001823985
aF0.0001709986320109439
aF0.00019952114924181964
aF0.00014251510660129974
aF5.7006042640519895e-05
aF0.00034203625584311936
aF0.00019952114924181964
aF0.0003228821480159742
aF0.00015294417537598776
aF0.00039069799045337954
aF0.0001358949532011755
aF6.79509394217375e-05
aF0.00023782828797608128
aF0.000135901878843475
aF0.0005096926553288367
aF6.795902071051156e-05
aF6.28002637611078e-05
aF6.28002637611078e-05
aF0.0002511458529541031
aF0.0002511458529541031
aF0.00032458165031736875
aF7.212925562608193e-05
aF0.0003605942593393913
aF0.00021635655560363478
aF0.0002525161429962844
aF0.0002164424082825295
aF0.0001966413654776419
aF0.00023596963857317024
aF0.0003146385589554
aF0.0003146385589554
aF0.00027533039647577095
aF0.00011799874134675897
aF0.00023600676552727845
aF0.0001073844722053191
aF0.00028635859254751763
aF0.0003221188260558339
aF7.158196134574088e-05
aF0.00017895490336435218
aF0.00025053686471009307
aF0.0003938840548573066
aF0.00023716914903709326
aF0.00015811276602472883
aF0.0003636823629866228
aF0.00014231048986433067
aF0.00017016449234259784
aF0.00014180374361883155
aF0.00019837896049424702
aF0.0003400782179901377
aF8.637256807238021e-05
aF0.0006477942605428515
aF0.00021593142018095054
aF8.619760801637755e-05
aF0.00021549402004094386
aF0.0002585705358874356
aF0.0003016656252020082
aF0.00034475328592975654
aF0.00021547080370609782
aF0.00036631615238751937
aF0.0001508360627478021
aF0.0005417970183686666
aF0.0005243196951954838
aF0.00029682398337785694
aF9.894132779261898e-05
aF0.00013818835072203412
aF0.00020848535390388824
aF0.00036484936933180444
aF0.00010424267695194412
aF0.00020844189682126107
aF0.00020844189682126107
aF0.00010429159931167545
aF0.0002085831986233509
aF0.00026066103638828066
aF0.00010426441455531227
aF0.0002621821041986591
aF0.00011236375894228248
aF0.00022471910112359551
aF0.000149812734082397
aF0.00029974896024579414
aF7.493724006144853e-05
aF0.00014992503748125936
aF0.00011244377811094453
aF0.0006828057107386717
aF0.0004655493482309125
aF0.000961210505100617
aF0.0004340950668196335
aF0.00036216137911053165
aF0.00018108068955526583
aF0.00047077569348881004
aF0.00018106757441877308
aF0.00014490653528474135
aF0.00014490653528474135
aF0.00018108068955526583
aF7.243227582210633e-05
aF0.0002535496957403651
aF0.0001448855404230658
aF0.00027327834641756933
aF0.0002235913743416476
aF0.0002980551898859939
aF0.00012418966245249745
aF4.968326915911067e-05
aF0.00014904980747733202
aF7.452490373866601e-05
aF0.00017670966601873123
aF0.00013253224951404843
aF0.0002871405221539957
aF4.417546494676856e-05
aF4.849190185239065e-05
aF0.00021013157469369282
aF0.00014547570555717196
aF0.00019371710844929454
aF0.00011300164659542182
aF0.00014532771399505885
aF6.459009510891505e-05
asS'cag'
p78
(lp79
F0.0004292934220539739
aF0.0001756200362948075
aF0.00044811471736764613
aF0.0003840983291722681
aF4.7146460479479504e-05
aF0.0004950378350345348
aF0.0009900756700690697
aF0.00021246960504261195
aF0.00018886187114898842
aF0.00021221910443537927
aF0.00018863920394255937
aF0.00025934832838213795
aF0.00018861696609610035
aF0.0004914562225918645
aF0.00022682594888855285
aF0.00022698040402511916
aF0.00015132026935007944
aF0.00034034185448494935
aF7.563152321887763e-05
aF0.0007940409120127047
aF0.00030249177600483987
aF0.00033109156751163994
aF0.00020693222969477495
aF0.0003927486202120843
aF0.0004134196002232466
aF0.0003728387006571282
aF0.0006056935190793458
aF0.0003727344732795974
aF0.0004861364307168776
aF0.000468774415334132
aF0.00027785013458365895
aF0.00038204393505253105
aF0.0003127715030408341
aF0.00020851433536055603
aF5.2103233874049114e-05
aF0.00020841293549619645
aF0.00010420646774809823
aF0.0003420167588211822
aF0.00031351536225275036
aF0.00022805017103762827
aF0.00022805017103762827
aF5.7009292514679893e-05
aF0.0002565418163160595
aF0.00019953252380137962
aF5.097532794127642e-05
aF0.0003738190715693604
aF0.0002548766397063821
aF5.096926553288367e-05
aF0.0003737746139078136
aF0.00023785657248679047
aF0.00015293118096856414
aF0.00013593882752761257
aF0.00032278889606197545
aF0.00016988889266419762
aF6.279434850863422e-05
aF9.419152276295133e-05
aF0.000282574568288854
aF0.00014426891726177594
aF0.00018033614657721994
aF0.0003605942593393913
aF0.0003605942593393913
aF0.00010819778555198904
aF0.00010819778555198904
aF0.0002626986658660612
aF0.0002814628562850656
aF0.0002503621309393945
aF0.000160947084175325
aF0.0004326620516047829
aF0.00019666456891126495
aF0.0001573007196507924
aF7.86503598253962e-05
aF0.00023604390416617492
aF0.00015736260277744994
aF0.0005112273388650753
aF0.0001179755397380943
aF0.00035829451809387314
aF0.0002149767108563239
aF0.00021473051320592657
aF0.00017894209433827213
aF0.00028638934631631705
aF7.159733657907926e-05
aF0.0002863790943261142
aF7.159477358152855e-05
aF0.0002507612394769837
aF7.164606842199535e-05
aF0.0002507612394769837
aF0.00021493820526598603
aF0.0009322003513678247
aF0.0006453694740238787
aF0.000332084064708952
aF0.00025301643025443967
aF0.0012453300124533001
aF0.00011338189857989172
aF0.00014172737322486466
aF0.00034014569573967516
aF0.0002801663757246611
aF0.00017241007736902222
aF0.00028013618928586823
aF0.00012929362582424686
aF0.0006679450992221671
aF0.00040938570597487666
aF0.00023604947597016335
aF9.441979038806533e-05
aF0.00011806933031075848
aF0.00014168319637291018
aF0.0003544172199513267
aF0.00016539470264395246
aF0.00040137885441752846
aF9.444208339235963e-05
aF3.495892326516343e-05
aF0.00027967138612130745
aF0.0001922740779583989
aF3.494426389908096e-05
aF0.00019219345144494532
aF6.988852779816193e-05
aF5.240907026309353e-05
aF0.00013975752070158275
aF0.00010481814052618707
aF6.595653464366982e-05
aF0.00019786960393100946
aF0.00016489133660917455
aF6.595653464366982e-05
aF0.0006925436137585331
aF0.00042871747518385386
aF0.0002072825260830512
aF0.00013818835072203412
aF0.0005733048418199823
aF0.0003127117319018085
aF0.0004169924420119885
aF0.00026063386155129273
aF0.00036488740617180983
aF0.00029961424665742855
aF0.0003745178083217857
aF0.0003482273053735826
aF0.0002829346856160359
aF0.0001741515553910791
aF0.0001741515553910791
aF0.00021768944423884885
aF0.0001741515553910791
aF8.56384345294168e-05
aF0.0002569153035882504
aF4.28192172647084e-05
aF0.0002569153035882504
aF0.0001284576517941252
aF6.0617081893677636e-05
aF0.0003030854094683882
aF0.00024246832757471054
aF0.00022517911975435004
aF0.00022517911975435004
aF0.0002020855225931614
aF0.00022229407485247757
aF0.00016166841807452914
aF0.0002250562640660165
aF0.00011252813203300826
aF0.00033757173399347364
aF0.00011252391133115787
aF0.00034106412005457026
aF0.0001550291454793501
aF0.00034110642520466383
aF9.302902505581741e-05
aF0.00018108724783600738
aF0.0003259688518652662
aF0.00018109380659181456
aF0.0002535129653773722
aF0.0002535129653773722
aF0.00032592163395379155
aF0.00010864054465126386
aF7.24296526998153e-05
aF0.00018107413174953826
aF0.0001448593053996306
aF0.00021734405564007825
aF0.00018112004636673188
aF0.00021730469740320886
aF0.00025352214697041035
aF0.00024842251701694243
aF0.00019873801361355392
aF0.000223563603845294
aF4.9680800854509775e-05
aF0.0003230295199284365
aF0.0002236358214889176
aF0.00019875776397515528
aF0.00014906832298136645
aF8.834312469632051e-05
aF6.625734352224038e-05
aF9.257759159395468e-05
aF0.0003934547642743074
aF9.257759159395468e-05
aF0.00015457315726714657
aF0.00013249127765755422
aF4.418132013784572e-05
aF0.0002871785808959972
aF0.00017672528055138288
aF4.418034416488104e-05
aF0.0006627051624732156
aF0.00013254103249464314
aF0.0002209505291765174
aF0.00015466537042356217
aF3.232323232323232e-05
aF0.0005656565656565656
aF0.000694949494949495
aF3.2281494633201515e-05
aF0.0003389556936486159
aF8.07037365830038e-05
aF0.00020989408421596487
aF0.0002583311805734952
aF0.00025828947793239275
aF0.00025828947793239275
aF3.228201568905962e-05
aF0.00019369209413435775
aF6.456403137811925e-05
asS'gac'
p80
(lp81
F0.00037858711289467706
aF0.0001514348451578708
aF0.00022708349103020212
aF0.00018923624252516842
aF0.0004915491360078648
aF0.00011343441600181494
aF0.000310077519379845
aF0.000289405684754522
aF0.00018643672803542297
aF0.00022589052997393572
aF0.00020851433536055603
aF0.00032997568600208406
aF0.00015630427231677667
aF0.00031345282534978486
aF5.699142279086997e-05
aF0.0002718684156868076
aF8.495887990212736e-05
aF0.00027190537692882877
aF5.0982258174155395e-05
aF0.00014423250279450473
aF0.00014423250279450473
aF0.000393251799126981
aF0.00012661232887552427
aF0.00012661232887552427
aF0.00023719540157181486
aF0.00017394329448599757
aF8.499787505312367e-05
aF0.0012749681257968552
aF0.0005949851253718657
aF4.3145291770035596e-05
aF0.0003667349800453026
aF0.0001294358753101068
aF0.00019790876405976845
aF6.596958801992281e-05
aF0.5098486419241136
aF0.0002762812543168946
aF0.0001381406271584473
aF0.0002605931099181738
aF0.00036483035388544326
aF0.00029973772948669914
aF0.00018733608092918696
aF7.490917262818833e-05
aF0.00014981834525637665
aF0.00019584802193497845
aF0.00019584802193497845
aF0.00022224467117890696
aF0.00016163248813011414
aF0.00034352456200618345
aF0.00014145129023784023
aF0.00018751171948246765
aF0.00015506280043417584
aF0.00015506280043417584
aF0.00021732831063459867
aF0.0001448855404230658
aF4.422332780541736e-05
aF0.00035378662244333887
aF4.422332780541736e-05
aF0.00012539971158066337
aF0.00021944949526616088
aF0.0001880759826970096
aF0.0001880759826970096
asS'cgt'
p82
(lp83
F0.00011708230886313078
aF0.00021465089958240644
aF0.00017562346329469617
aF0.00011978917105893628
aF0.0002795080658041846
aF0.0003261730581054005
aF0.00013978845347374308
aF9.319230231582871e-05
aF0.0002850545879535931
aF0.00011402183518143724
aF0.0002850545879535931
aF0.00023016473218689376
aF9.864202808009732e-05
aF0.00013152270410679643
aF0.00019671099221024472
aF0.00023605319065229366
aF0.00023605319065229366
aF0.0003322521952377185
aF0.0002361553902467824
aF0.00028338646829613885
aF0.0006376195536663124
aF0.00027626217280198907
aF0.00013813108640099454
aF0.00013813108640099454
aF0.00014155712841253793
aF0.00012133468149646107
aF0.00010111223458038423
aF0.00015001500150015003
aF0.00021740705848249874
aF0.00015459705382186002
aF8.834117361249145e-05
aF0.00030919410764372005
aF0.0005329153605015674
aF0.00043887147335423197
aF0.00043887147335423197
asS'gaa'
p84
(lp85
F0.0002341417728434567
aF0.0002536535872470781
aF0.00025588536335721597
aF0.00012794268167860799
aF0.0002593238719411571
aF7.072469234758829e-05
aF0.00021221910443537927
aF0.00030653870640665894
aF0.00011343870528624367
aF7.562580352416244e-05
aF0.0003025260928755105
aF0.00018907880804719407
aF0.00018640197586094413
aF0.0001398014818957081
aF0.0003272557269752221
aF0.0005610098176718093
aF0.0004848139170112648
aF0.00017111079423926993
aF0.0005985634477254589
aF0.00034203625584311936
aF0.00020384242980176325
aF0.00011890808405102856
aF0.0004078164825828377
aF0.00018691588785046728
aF0.00023782828797608128
aF0.00025481602283151564
aF0.00030575325712150293
aF6.794516824922288e-05
aF0.0002197181330236354
aF0.0001255532188706488
aF9.417378201908589e-05
aF0.00028252134605725765
aF0.00028843380444188056
aF7.210845111047014e-05
aF0.000196649099347125
aF0.000117989459608275
aF0.00031636559207820557
aF0.0003005473124742953
aF0.00017248070372127117
aF0.00012936052779095338
aF0.00041459369817578774
aF0.00013819789939192924
aF0.0002605795288722118
aF0.00020849622100599426
aF0.0001563721657544957
aF0.0004171011470281543
aF0.00029964791370140083
aF7.491197842535021e-05
aF0.0002248791274689854
aF0.00014991941831265696
aF0.0004122784003598066
aF0.0001124395637344927
aF0.000374784498913125
aF0.00014991379956524997
aF0.00017410607412566106
aF0.00015234281485995344
aF0.00023935938723996866
aF0.00010879972147271303
aF4.041465435366864e-05
aF0.00022228059894517752
aF0.00014145129023784023
aF0.00018758206715438003
aF0.00015006565372350402
aF0.0003375970591545069
aF7.502156870100153e-05
aF0.00030006376354975434
aF0.00011252391133115787
aF0.0003101159833777833
aF9.303479501333498e-05
aF0.0001448960370933855
aF0.0001448960370933855
aF0.00015466195315952275
aF8.837825894829872e-05
aF0.0002650762094102054
aF0.00017671747294013696
aF0.0001988950276243094
aF6.629834254143647e-05
aF6.454736162659352e-05
aF0.00022591576569307728
aF0.00019364208487978053
aF9.406452826639074e-05
aF0.00043896779857649016
aF0.0001567742137773179
asS'ctt'
p86
(lp87
F0.00017576751816264356
aF0.0009764862120146863
aF9.764862120146864e-05
aF0.0001756337450968913
aF0.00023417832679585503
aF0.00018812905653278148
aF0.0002821935847991722
aF9.320967516428205e-05
aF0.0004194435382392692
aF0.00012173066221480245
aF0.00022607122982749026
aF0.00017390094602114635
aF0.0002956316082359488
aF0.00013896126454750738
aF0.00013896126454750738
aF0.00012157210093957867
aF3.4734885982736764e-05
aF0.0004709280421951526
aF0.00028897558156335787
aF0.0008669267446900737
aF8.944863859172063e-05
aF0.00032201509893019426
aF0.0001966800409094485
aF0.0002360160490913382
aF0.00014323056540265693
aF0.0003796447158201117
aF0.0007592894316402234
aF0.00018991849331328637
aF0.00036401044551713225
aF9.495924665664319e-05
aF0.0003165308221888106
aF4.747962332832159e-05
aF0.00014177961776215052
aF0.0001701355413145806
aF8.621432882145013e-05
aF8.621432882145013e-05
aF0.00010778882014357471
aF0.00010778882014357471
aF0.00011813069980626565
aF9.445769475995938e-05
aF0.0002125298132099086
aF0.00016492397004980703
aF0.00013193917603984562
aF0.0003454947484798231
aF0.0003454947484798231
aF0.00015634771732332708
aF0.00026068821689259646
aF0.00026068821689259646
aF0.0003127443315089914
aF0.00020849622100599426
aF0.00011240586009217281
aF0.00044962344036869123
aF0.00018730800929047726
aF0.00026217228464419474
aF0.0001305795555942458
aF0.00021763259265707632
aF0.00016182866390209366
aF0.00022251441286537878
aF0.000124057935055671
aF0.00015507241881958876
aF6.208866261020738e-05
aF0.0002793989817459332
aF0.00015508684863523573
aF7.243489913440295e-05
aF0.00010865234870160443
aF7.453786523553965e-05
aF0.0002733055058636454
aF0.00017397355601948505
aF0.00039765384233025154
aF0.000250917416805194
asS'atg'
p88
(lp89
F0.00013653741125068268
aF0.00021455878910821565
aF5.852859121680941e-05
aF9.754765202801568e-05
aF0.00013653741125068268
aF0.00021455878910821565
aF0.0003402389233328293
aF0.00010344256868586561
aF0.0001861966236345581
aF4.1377027474346244e-05
aF0.0003262034577566522
aF0.0005592059275828324
aF9.320098793047206e-05
aF0.00013979496738117427
aF0.00023299161230195712
aF8.495310588555118e-05
aF0.00020388745412532283
aF0.00011893838991402454
aF0.00011893838991402454
aF0.00012556110117085728
aF0.0001569513764635716
aF0.00018027112777617538
aF0.0004326507066628209
aF7.218131947451999e-05
aF0.00014436263894903998
aF0.0001430487259722843
aF0.0005185516316495307
aF0.00015738117721120554
aF0.00027530873908597497
aF0.00010741138560687433
aF0.00017901897601145723
aF0.0001073844722053191
aF0.0001073844722053191
aF6.325610816794497e-05
aF0.00015814027041986242
aF0.0007381330910742676
aF0.0014194867136043607
aF0.0003449316604147803
aF0.0010132367524684173
aF4.311645755184754e-05
aF8.61994655633135e-05
aF0.0001939487975174554
aF0.00028331956085468065
aF0.0005194191949002479
aF6.988608568034104e-05
aF0.00019218673562093787
aF3.4974206522689515e-05
aF0.00031476785870420565
aF0.00013190001978500296
aF0.00041445050770187194
aF0.0017721255081830502
aF0.00020848535390388824
aF0.0006752447762313838
aF0.0004501631841542559
aF0.000239354178906369
aF8.706440589426028e-05
aF0.00017412881178852056
aF0.00015230303953351755
aF0.0007180000435151542
aF4.351515415243359e-05
aF0.0003458940343452429
aF0.0008342150240091154
aF0.0001414227124876255
aF0.00012121946784653615
aF0.0002629662594061008
aF4.0456347600938586e-05
aF8.083747625399135e-05
aF0.00018188432157148054
aF6.0618306728632044e-05
aF0.0002828854314002829
aF0.00010105909936130649
aF0.0006467782359123616
aF0.00011255346289487506
aF0.00022510692578975013
aF7.501312729727703e-05
aF0.00011251969094591554
aF0.00011252813203300826
aF0.00017409470752089137
aF0.0005968961400716276
aF4.974134500596896e-05
aF6.457028475495577e-05
aF6.457028475495577e-05
aF9.691800736576855e-05
aF4.845900368288428e-05
aF6.455465358359021e-05
aF3.2277326791795104e-05
aF3.230078490907329e-05
aF0.00019380470945443975
aF0.00011301441741067825
aF0.00020988391804840247
aF0.0001291843622329517
aF0.00033910895086149823
aF0.00016142050040355126
aF0.00024213075060532688
aF0.00025101189168836874
aF9.40851784482218e-05
aF0.0002508938091952581
aF0.00012543510301357835
aF0.00028222898178055126
asS'aag'
p90
(lp91
F0.0002730908026918951
aF0.00021457134497220324
aF0.00012796724038646108
aF0.0005758525817390748
aF0.00012796724038646108
aF0.00025606555278151206
aF0.00019204916458613405
aF4.714201532115498e-05
aF0.00042427813789039484
aF0.00014142604596346494
aF0.0001135890348718337
aF0.0004543561394873348
aF0.00018931505811972283
aF0.0009451438508941061
aF0.00015122301614305697
aF0.00018602343895330811
aF0.00012401562596887208
aF0.0002686838624338624
aF0.00020667989417989417
aF0.00027958993476234854
aF0.00013979496738117427
aF0.0003728213253798117
aF0.0001398079970174294
aF0.00019115142668473916
aF0.00026066103638828066
aF5.703693141308997e-05
aF0.00028518465706544986
aF0.00011407386282617995
aF0.0002565930149679259
aF0.00017106200997861725
aF0.0008835432936213875
aF0.00019950977597902298
aF0.00028881111752913593
aF0.00011892222486493833
aF0.0002208555604634569
aF0.00010193333559851857
aF0.0003227559964666712
aF5.09614731263165e-05
aF0.0004926108374384236
aF0.00032274503142517414
aF0.00047089847428894333
aF9.417969485778867e-05
aF0.0005336011802002574
aF6.27766094353244e-05
aF0.00021634095334246772
aF0.00014422730222831182
aF0.00014426891726177594
aF7.213445863088797e-05
aF3.579290226748036e-05
aF0.00039372192494228393
aF0.00023265386473862233
aF0.00030396767214404494
aF0.00014304361042072702
aF3.162255320494577e-05
aF0.00015811276602472883
aF0.0003004142554469848
aF0.00021550330797577742
aF6.465099239273323e-05
aF0.0003628327341095755
aF0.00023089355806972986
aF0.0001563721657544957
aF0.00026062027625749283
aF0.00031282586027111576
aF0.00022469385462307607
aF0.00018724487885256338
aF7.496251874062968e-05
aF0.00011244377811094453
aF0.0002175473709400222
aF0.00042430242660578265
aF0.00016163901965934575
aF0.00022507314877335134
aF0.00011253657438667567
aF0.00026263460023261923
aF7.503845720931977e-05
aF0.00033757173399347364
aF0.00015003188177487717
aF0.00018606381989022235
aF0.00012404254659348157
aF0.00032590983161325367
aF0.00010863661053775122
aF0.00018121851328331703
aF0.0001449748106266536
aF0.00028708979285367256
aF0.00019875447197561946
aF0.0007733268521178108
aF6.628515875295522e-05
aF0.00022086268966583475
aF4.417253793316695e-05
aF4.417546494676856e-05
aF0.00026505278968061137
aF4.417546494676856e-05
aF0.00019891261105954116
aF8.840560491535163e-05
asS'aaa'
p92
(lp93
F0.0005757420675537359
aF0.00012794268167860799
aF4.715980098563984e-05
aF0.0005423377113348581
aF0.00018863920394255937
aF0.00041594191938289346
aF0.0001890645088104061
aF0.00018907880804719407
aF0.00015126304643775526
aF0.00034034185448494935
aF0.00015126304643775526
aF0.0005670863105364637
aF0.00022683452421458545
aF0.00016550126194712236
aF0.00014481360420373206
aF0.0002178269582643548
aF0.0001306961749586129
aF0.00012405921759986766
aF0.0002067653626664461
aF0.0002208405531206469
aF0.0001528896136989094
aF0.0003398297452976059
aF0.00013593189811904235
aF0.00040809919949772404
aF6.278449223041909e-05
aF0.00018835938971557733
aF0.00018835938971557733
aF4.309601792794346e-05
aF0.0003447681434235477
aF0.00010774004481985865
aF0.0004740664123946818
aF0.0001508393130346715
aF0.00040945628515397714
aF8.620132319031098e-05
aF0.00043102519342255556
aF0.00037479854578164235
aF0.00026131835108120466
aF0.00019598876331090352
aF0.0004573071143921082
aF6.532958777030116e-05
aF8.710611702706823e-05
aF0.0001524357047973694
aF0.0003482121482513221
aF0.0001305795555942458
aF4.3517047803477014e-05
aF0.00023934376291912356
aF0.00017406819121390806
aF4.4160833756541323e-05
aF0.0001766433350261653
aF0.00013248250126962396
aF0.0002870517576399929
aF0.00015456633103691928
aF0.0005081749889527176
aF0.0001104728236853734
aF4.417644070417247e-05
aF0.0005301172884500696
aF0.00011044110176043116
aF0.00017671356939320977
aF6.626758852245367e-05
asS'atc'
p94
(lp95
F0.00019503442357576113
aF0.00025354475064848946
aF0.0001919754271453254
aF0.0001279836180968836
aF0.00025619675911099724
aF0.00012809837955549862
aF0.00018859917959356876
aF0.00033081774010131293
aF0.0006409593714462938
aF0.0001447267765211818
aF0.00026877829925362335
aF4.134196002232466e-05
aF0.0003720776402009219
aF0.0001398014818957081
aF9.320098793047206e-05
aF8.693535487011858e-05
aF0.0002260319226623083
aF0.0004866856705833275
aF0.0007300285058749913
aF5.7006042640519895e-05
aF0.0003135332345228594
aF0.00011410965938266674
aF0.00011410965938266674
aF0.00011895455935832512
aF6.797403391904293e-05
aF0.00011892424525577207
aF0.00011892424525577207
aF0.00012556898446083818
aF0.00018835347669125726
aF6.283380458686774e-05
aF0.00037700282752120643
aF0.00015691689681144864
aF0.0004079839317097665
aF0.00021631755416952087
aF0.00046868803403396183
aF0.00021631755416952087
aF0.00018028412778538978
aF0.00014422730222831182
aF0.00021483815525637353
aF0.0002685476940704669
aF0.0001967496950379727
aF0.00011800338276363923
aF0.00019667230460606536
aF0.0003146756873697046
aF0.0001573378436848523
aF0.00011810093693409968
aF0.00010737294201861131
aF0.00010737294201861131
aF0.0001431536754706177
aF0.000501037864147162
aF6.330115524608324e-05
aF0.00023737933217281214
aF0.0001508360627478021
aF9.445769475995938e-05
aF0.0001416865421399391
aF0.00013975263783103906
aF0.00031444343511983786
aF0.00013186088676446348
aF0.0002071966296014918
aF0.00020846362309776944
aF0.00041712289483289015
aF0.0002247864528697737
aF0.0002997152704930316
aF0.000149812734082397
aF0.000149812734082397
aF7.49288176232579e-05
aF7.49288176232579e-05
aF7.500468779298706e-05
aF7.501312729727703e-05
aF7.501312729727703e-05
aF0.00011251969094591554
aF0.00018110692552883223
aF0.0001448855404230658
aF0.00010471204188481675
aF9.945795414988313e-05
aF0.00027350937391217863
aF0.00015461071231363889
aF4.417448923246825e-05
aF4.417448923246825e-05
aF9.405273223187134e-05
aF0.0002194563752076998
asS'aac'
p96
(lp97
F0.00031985670419652
aF0.0005138086062941554
aF0.0002569043031470777
aF0.00030646644192460924
aF9.429736674603362e-05
aF9.43240502747188e-05
aF0.0003065531633928361
aF0.0004008772136675549
aF0.00022694606248581587
aF0.00022694606248581587
aF0.0004341264755131995
aF0.00016538151448121887
aF0.00010338268133322306
aF0.0002481184351997353
aF0.00012405921759986766
aF0.00037209302325581393
aF0.000289405684754522
aF0.00024809278670222663
aF0.0002274183878103744
aF0.00023784444972987665
aF0.00016988889266419762
aF0.00012556504269211453
aF6.278252134605726e-05
aF0.00010818608005769924
aF0.00010818608005769924
aF0.00039671090594345067
aF0.0003541633873760428
aF7.870297497245396e-05
aF0.0003146014393015848
aF0.0002359510794761886
aF0.00015735022225718895
aF0.0002753628889500806
aF0.00047192071731949034
aF0.0001966336322164543
aF0.0002753520572732279
aF0.0001180080245456691
aF0.0002863790943261142
aF0.00010739216037229283
aF0.00014242534538146256
aF6.330015350287224e-05
aF0.0003007804461048932
aF0.00014247494815494943
aF0.00022147693475922293
aF0.0001581978105423021
aF0.00014252729397679656
aF5.701091759071862e-05
aF8.622733837763262e-05
aF0.00036646618810493866
aF4.311366918881631e-05
aF0.00014709667929246499
aF0.00012870959438090684
aF0.00019789570896137736
aF9.894785448068868e-05
aF0.00048355899419729207
aF0.00010423724396726951
aF0.00020847448793453902
aF0.00046936114732724904
aF0.0005213764337851929
aF0.0003127606338615513
aF0.00015638031693077564
aF0.0004124639094079268
aF0.00039161934599569217
aF0.00039161934599569217
aF0.0007179219423051821
aF0.0002610625244746117
aF0.00015007128385983342
aF0.00015002625459455406
aF0.00018753281824319257
aF0.0003000750187546887
aF4.416375921918474e-05
aF0.00026498255531510844
aF0.00015457315726714657
aF0.0002582102799967724
aF0.00016138142499798273
aF0.00032279410577962844
aF0.00012911764231185137
aF0.00032288269671628295
aF8.072067417907074e-05
aF0.0007522567703109327
aF0.00021940822467402207
asS'ata'
p98
(lp99
F3.9003841878425025e-05
aF0.00023402305127055015
aF0.0003211303789338471
aF7.562294400120997e-05
aF0.0001890573600030249
aF7.562294400120997e-05
aF0.00037815761609438813
aF0.00012402075280596952
aF0.00016536100374129272
aF9.320098793047206e-05
aF0.00027962902549284616
aF0.00020843465573542694
aF0.0003300215382477593
aF0.0001563259918015702
aF0.00028545329984014617
aF0.0003425439598081754
aF0.49459063907940426
aF0.00011404133998574483
aF0.00017096939647803043
aF8.548469823901521e-05
aF0.00018708755697666507
aF0.0002551193958772706
aF3.4015919450302745e-05
aF0.00021969055016790636
aF0.00010822120414126474
aF0.00018029062849313093
aF5.367014329928261e-05
aF7.156019106571014e-05
aF0.0002753953890943426
aF0.00039342198442048943
aF7.158452342603529e-05
aF3.1640563202025e-05
aF0.00022148394241417498
aF4.7468354430379746e-05
aF0.00022151898734177215
aF0.00015089133668168395
aF6.464820601228316e-05
aF0.00019394461803684947
aF6.464820601228316e-05
aF0.00028323931361673
aF0.00010424811050299713
aF0.00015634771732332708
aF0.00014979029358897544
aF0.00013075883711807524
aF4.358627903935841e-05
aF0.00028300243817485195
aF4.353883664228492e-05
aF4.3553058513534114e-05
aF0.0001524357047973694
aF0.0001524357047973694
aF0.00019591197022138053
aF0.00017414397353011604
aF7.502156870100153e-05
aF0.00011252391133115787
aF4.418229615393112e-05
aF4.418229615393112e-05
aF0.0001104557403848278
aF3.2309133792123036e-05
aF6.461826758424607e-05
asS'agg'
p100
(lp101
F0.0001365134465744876
aF5.850576281763754e-05
aF0.0003510345769058252
aF9.756668683044862e-05
aF7.805334946435889e-05
aF0.0003707534099557047
aF0.00019204916458613405
aF0.0003200819409768901
aF0.00012804917088161854
aF0.0003840983291722681
aF0.00019204916458613405
aF0.00014146272457207527
aF4.715424152402509e-05
aF0.00025934832838213795
aF0.00011339154099104207
aF7.566013467503972e-05
aF0.00022698040402511916
aF0.00015121729925903524
aF0.00018902162407379404
aF0.00010346611484738747
aF6.207966890843248e-05
aF0.00026901189860320746
aF0.0002795638803466592
aF0.0001397819401733296
aF0.00012161434354314703
aF0.00010424086589412603
aF0.00020848173178825206
aF5.209690023443605e-05
aF0.0001041938004688721
aF0.00029521576799513763
aF8.681912104321856e-05
aF5.2091472625931135e-05
aF0.0004167317810074491
aF0.00017103762827822122
aF0.00017103762827822122
aF0.00017103762827822122
aF0.00014249886000911993
aF0.0003419972640218878
aF5.7006042640519895e-05
aF0.00025652719188233955
aF9.414718343009572e-05
aF0.0002510591558135886
aF6.279434850863422e-05
aF9.419152276295133e-05
aF0.00021978021978021978
aF7.210065251090523e-05
aF0.00018025163127726305
aF0.00021630975556997622
aF0.00010815487778498811
aF7.211365111415591e-05
aF0.00028845460445662364
aF0.00043266630611141156
aF0.00014317160906992144
aF3.579290226748036e-05
aF0.00012527515793618125
aF0.00023596963857317024
aF0.0001573130923821135
aF7.866582756450598e-05
aF0.00027533039647577095
aF0.00011798017932987259
aF7.865345288658172e-05
aF0.00017894849862209656
aF0.0003578969972441931
aF0.00014314855241026375
aF0.0002505099667179616
aF7.1571714858288e-05
aF4.74525869568656e-05
aF5.669094928994586e-05
aF5.669094928994586e-05
aF0.00017007284786983758
aF0.00010772611711983453
aF6.463567027190072e-05
aF0.00023699745766363596
aF0.00021250472232716282
aF7.083490744238761e-05
aF0.00033056290139780884
aF0.0005666525003541578
aF8.736065974770241e-05
aF5.241639584862145e-05
aF0.00013977705559632385
aF0.00012234126221227957
aF0.00012234126221227957
aF0.00033206914029047314
aF0.00027954922687166943
aF6.988730671791736e-05
aF0.0002271337468332314
aF0.00013191741969527076
aF9.893806477145307e-05
aF0.0001649022129876983
aF0.00023086309818277762
aF0.00027626217280198907
aF0.00027626217280198907
aF0.0007815756565235515
aF0.0003128747979350263
aF0.00010423724396726951
aF0.0001563884689568889
aF0.00022468544038346314
aF0.00022486227185848667
aF0.00011243113592924333
aF0.00026233931716823444
aF0.00014992503748125936
aF6.530683327165465e-05
aF0.0003047652219343884
aF0.0001712768690588336
aF0.000214096086323542
aF0.0001616455517164737
aF0.00014143985775191448
aF0.0001010427612965807
aF0.0001010427612965807
aF0.00032333683614905827
aF6.201935003721161e-05
aF6.201935003721161e-05
aF9.302902505581741e-05
aF0.00021728108930252772
aF0.00010863267670915411
aF0.00014483832422058877
aF0.00014483832422058877
aF0.00010864054465126386
aF0.00047077569348881004
aF0.0001448855404230658
aF7.24427702115329e-05
aF0.00010866415531729933
aF9.935666559030279e-05
aF9.935666559030279e-05
aF0.00022355249757818128
aF4.9679566794177554e-05
aF7.451935019126633e-05
aF0.00012419891698544388
aF0.00012418040929862905
aF9.934432743890324e-05
aF0.0002483608185972581
aF7.45452738296392e-05
aF7.45452738296392e-05
aF0.00047212006758771497
aF0.00014904980747733202
aF0.0002732579803751087
aF0.00011042890587040063
aF4.4171562348160254e-05
aF0.00023144397898488671
aF0.00027773277478186404
aF8.836264027569144e-05
aF0.0002209066006892286
aF0.00024299726075815146
aF4.418229615393112e-05
aF8.836459230786225e-05
aF0.0001546380365387589
aF0.0001546380365387589
aF6.625441696113074e-05
aF4.416961130742049e-05
aF0.00015459363957597173
aF4.4190105835303475e-05
aF4.849190185239065e-05
aF3.2281494633201515e-05
aF4.842224194980227e-05
aF0.00020982971511580986
aF0.0003719696602138017
aF9.703556353403523e-05
aF0.0003066791490460664
aF4.842302353358944e-05
asS'cct'
p102
(lp103
F0.00015610669892871778
aF0.0005073467715183328
aF0.00011710058940630001
aF0.00080018736094305
aF9.795662480653566e-05
aF0.0009599749231040495
aF0.00013044612575006522
aF0.0007174536916253587
aF4.718539140282169e-05
aF0.0007077808710423253
aF0.00018941546387847105
aF0.0007955449482895784
aF0.00020671834625322997
aF0.000702842377260982
aF0.00010340406171154403
aF0.0004963394962154114
aF9.320967516428205e-05
aF9.320967516428205e-05
aF0.0008388870764785384
aF0.00013904579820978535
aF3.4761449552446336e-05
aF0.0008516555140349353
aF6.947821857847565e-05
aF0.000590564857917043
aF0.00022607122982749026
aF0.000765164162493044
aF0.00017373477649021004
aF0.0007818064942059452
aF0.00013893954393094706
aF0.0008162698205943139
aF5.7006042640519895e-05
aF0.0006840725116862387
aF0.00011902130481356162
aF3.400608708958904e-05
aF0.0001870334789927397
aF0.00011891212394040804
aF0.00011891212394040804
aF0.00013593882752761257
aF0.0005947323704333051
aF8.498198381943028e-05
aF0.0009687946155415052
aF0.00018837121687806103
aF0.0006906944618862238
aF0.00014420130502181046
aF0.00010815097876635784
aF0.0005048865808359479
aF0.00018041423107454716
aF7.216569242981887e-05
aF0.0007938226167280075
aF0.5005219958240334
aF0.00014316392269148176
aF0.0007695060844667144
aF0.0001788716774585912
aF0.0006797123743426466
aF0.00010738831615120275
aF0.0007875143184421535
aF0.0001073998496402105
aF0.0001073998496402105
aF0.000429599398560842
aF0.00022148744640794823
aF3.1641063772564036e-05
aF0.0007277444667689728
aF0.00030051403716884145
aF0.0006959272439699486
aF3.162855425878483e-05
aF3.162855425878483e-05
aF0.0001106999399057469
aF0.00010778882014357471
aF0.0006036173928040183
aF0.00021255993009140076
aF0.0005432087102335797
aF7.084996339418558e-05
aF0.0003542498169709279
aF7.083156254426973e-05
aF0.000519431458657978
aF7.084327106996954e-05
aF0.0005903605922497462
aF0.0002364177975317982
aF7.084996339418558e-05
aF8.739883584750652e-05
aF0.0006117918509325455
aF5.241731169080775e-05
aF0.0007338423636713085
aF0.00019824880224681975
aF0.0010242854782752354
aF6.59326168655634e-05
aF0.0008900903276851058
aF0.0002308783271216069
aF9.894785448068868e-05
aF0.0007586002176852799
aF0.0008982863460475401
aF0.00010432968179447053
aF0.0007303077725612937
aF0.00010424267695194412
aF0.0007296987386636089
aF0.00010423724396726951
aF0.0006775420857872518
aF0.00015638031693077564
aF7.489514679448772e-05
aF0.00011234272019173157
aF0.0001123721766490617
aF0.0010488069820579092
aF0.00014980712332871428
aF0.0006741320549792142
aF0.00014982956886541558
aF0.00041203131437989287
aF0.00011236796763802532
aF0.00011236796763802532
aF6.52897777971229e-05
aF0.0005658447409083985
aF0.00011252391133115787
aF0.0006751434679869473
aF0.00021718221587912258
aF0.00046539046259811985
aF0.00018602920658543392
aF0.0006821070908132577
aF0.00018610421836228288
aF0.0005272952853598015
aF9.301171947665406e-05
aF0.0007750976623054505
aF7.242440702516749e-05
aF0.0005431830526887561
aF7.453971724600591e-05
aF0.0003975451586453649
aF0.00039751552795031056
aF0.00012422051626046558
aF4.968820650418623e-05
aF0.0005714143747981416
aF0.0001242668257282036
aF4.970673029128144e-05
aF0.0007207475892235808
aF0.00013254688846179335
aF4.418229615393112e-05
aF0.0008836459230786224
aF0.00017672528055138288
aF6.627198020676858e-05
aF0.00015463462048246002
aF0.00014521516046275232
aF0.0005485906061926198
aF3.2277326791795104e-05
aF3.2277326791795104e-05
aF0.0006616851992317996
asS'agc'
p104
(lp105
F0.00011714402858314298
aF3.904800952771433e-05
aF0.00011714402858314298
aF0.00011701837188438584
aF0.00019503061980730976
aF0.00017552755782657877
aF4.9814441206505766e-05
aF0.00022416498542927594
aF0.00017435054422277018
aF0.00021217407704276486
aF0.00016502428214437267
aF0.00011787448724598048
aF0.0002646002646002646
aF7.56000756000756e-05
aF0.0002646002646002646
aF0.00018638460463165743
aF0.00019098216921020192
aF8.681007691372814e-05
aF0.00032987829227216695
aF5.700441784238278e-05
aF8.550662676357418e-05
aF0.00019951546244833976
aF0.00019950977597902298
aF0.00014250698284215926
aF0.00025651256911588666
aF0.00013587879611386643
aF8.492424757116652e-05
aF0.0002887424417419662
aF6.79567115747269e-05
aF0.00015290260104313552
aF0.00010190909708539982
aF0.00018683334465656635
aF0.0003057272912561995
aF0.00012566760917373548
aF6.283380458686774e-05
aF9.414718343009572e-05
aF9.414718343009572e-05
aF0.0001072692816533772
aF0.0001251474952622734
aF7.865963973885e-05
aF0.00011796626164916834
aF0.00015728834886555778
aF0.000150653459380061
aF0.00018831682422507627
aF0.00014319467315815853
aF0.00010739600486861888
aF0.00017899334144769814
aF0.000143184421534937
aF0.00017911517105498835
aF0.00017911517105498835
aF7.164606842199535e-05
aF0.00014247494815494943
aF0.00018996659753993256
aF0.00015081331466120865
aF4.308951847463105e-05
aF0.0003447161477970484
aF0.0001416464033617413
aF9.445546424860678e-05
aF0.00011806933031075848
aF0.0005667327854916407
aF8.739730816290858e-05
aF6.991784653032686e-05
aF8.739730816290858e-05
aF0.000139779497842154
aF8.736218615134624e-05
aF0.0001048346233816155
aF3.494365335895868e-05
aF0.00012230278675635537
aF0.00012230278675635537
aF0.00027662517289073305
aF0.0001306136665433093
aF8.707577769553955e-05
aF0.00019592049981496397
aF4.28192172647084e-05
aF0.0001926864776911878
aF0.0001926864776911878
aF0.00011250703168948059
aF0.00012406178276781838
aF9.304633707586378e-05
aF6.203089138390919e-05
aF0.00010864054465126386
aF0.00014485405953501847
aF0.00014485405953501847
aF0.00010864054465126386
aF0.00010864054465126386
aF7.24874053133268e-05
aF7.24874053133268e-05
aF0.00021728108930252772
aF7.242702976750923e-05
aF9.93418601763318e-05
aF4.96709300881659e-05
aF0.0003228610455730784
aF9.937888198757764e-05
aF9.937888198757764e-05
aF0.00017391304347826088
aF8.831581736288969e-05
aF0.00011039477170361212
aF0.00013247372604433455
aF8.836849663095106e-05
aF8.836849663095106e-05
aF0.00011046062078868883
aF3.2283578957563236e-05
aF9.68507368726897e-05
aF0.00032283578957563236
asS'aga'
p106
(lp107
F9.755907201810696e-05
aF0.00011707088642172835
aF0.00037072447366880644
aF5.850918594219292e-05
aF3.900612396146195e-05
aF0.0002340367437687717
aF0.00025586899507452183
aF9.428403064230996e-05
aF4.714201532115498e-05
aF0.00042427813789039484
aF0.0003402003402003402
aF0.0001134001134001134
aF0.00018907880804719407
aF0.00034034185448494935
aF0.00011349020201255958
aF7.566013467503972e-05
aF0.000264810471362639
aF0.00011349020201255958
aF0.00022698040402511916
aF0.0003781147200060498
aF7.562294400120997e-05
aF0.00034030324800544487
aF8.267366637041936e-05
aF0.0001033420829630242
aF0.0005580472480003307
aF0.00014466994585210597
aF4.133427024345885e-05
aF0.0003926755673128591
aF0.0002795378307864331
aF0.00013977542747984904
aF0.0001863672366397987
aF0.0002329590457997484
aF0.0002795508549596981
aF0.00026064291920069505
aF6.950477845351868e-05
aF0.00045178105994787143
aF5.2091472625931135e-05
aF6.945529683457484e-05
aF0.0005730061988852425
aF0.00014259232853272493
aF0.00011407386282617995
aF0.00014251104460595695
aF0.00011400883568476557
aF0.0003990309248966795
aF5.699304684828451e-05
aF5.699304684828451e-05
aF0.0005414339450587029
aF5.7006042640519895e-05
aF8.550906396077984e-05
aF0.00017101812792155968
aF0.0001359342078434038
aF6.79671039217019e-05
aF0.00023788486372595664
aF6.795902071051156e-05
aF0.0003737746139078136
aF0.00018691588785046728
aF0.00039082412914188616
aF0.000101914290082041
aF3.3971430027347e-05
aF0.0002547857252051025
aF5.0955414012738855e-05
aF0.000118895966029724
aF0.00020382165605095542
aF6.79497851088046e-05
aF0.00015288701649481033
aF0.00023782424788081608
aF0.0019883080687920604
aF0.00018829436686019143
aF0.00028244155029028716
aF7.210585138984029e-05
aF0.000252370479864441
aF0.0006850055882034827
aF0.00018036867356877457
aF0.00032466361242379423
aF0.00016887771377103935
aF9.382095209502186e-05
aF0.00045034057005610494
aF0.0001573192794777
aF0.000117989459608275
aF0.0001573192794777
aF0.000117989459608275
aF0.0001573130923821135
aF0.0001573130923821135
aF7.1571714858288e-05
aF7.1571714858288e-05
aF0.00017892928714572002
aF0.0001074229240519927
aF0.0001074229240519927
aF0.00014323056540265693
aF0.00021472282861539563
aF0.0002505099667179616
aF0.00017391029390839672
aF7.905013359472577e-05
aF0.0006482110954767514
aF0.00022133337549207153
aF6.3238107283449e-05
aF0.00014228574138776026
aF0.0008519338899301414
aF0.000198784574317033
aF0.00028397796331004716
aF0.00010774004481985865
aF0.00010774004481985865
aF0.000237028098603689
aF8.618275052248293e-05
aF0.0003447310020899317
aF0.00010772147535332644
aF8.617718028266115e-05
aF0.0003662530162013099
aF0.00012936052779095338
aF6.592827004219409e-05
aF9.889240506329114e-05
aF6.592827004219409e-05
aF6.594566077552098e-05
aF0.0002967554734898444
aF0.00015638031693077564
aF0.0002605523710265763
aF0.00020845275939340247
aF0.00010422637969670123
aF0.0002605523710265763
aF0.0006253256904637832
aF0.00010422637969670123
aF0.00010424267695194412
aF0.00036484936933180444
aF7.489795154102535e-05
aF7.489795154102535e-05
aF7.489795154102535e-05
aF0.00011233851338700617
aF0.0001872308556450103
aF0.00022484541877459247
aF0.00011242692250037475
aF4.351515415243359e-05
aF0.00015230303953351755
aF0.00045690911860055264
aF6.060728499565648e-05
aF6.060728499565648e-05
aF0.00038384613830582434
aF6.0614632372254665e-05
aF8.081950982967288e-05
aF0.0002626634069464369
aF0.00018752578479540937
aF0.00011251547087724562
aF0.0001500206278363275
aF0.0001550339524355834
aF0.0002480543238969334
aF0.00018113316910592668
aF0.000108679901463556
aF0.000217359802927112
aF7.242702976750923e-05
aF0.00014485405953501847
aF0.00021730469740320886
aF0.0003259570461048133
aF0.00025384392225123297
aF0.0001450536698578474
aF0.00011038989711661589
aF6.623393826996953e-05
aF0.00019870181480990858
aF4.416961130742049e-05
aF0.00039752650176678447
aF6.625588020936858e-05
aF6.625588020936858e-05
aF6.625588020936858e-05
aF4.416863585168172e-05
aF4.416863585168172e-05
aF4.8429277112323634e-05
aF3.2286184741549094e-05
aF0.00025828947793239275
aF6.459009510891505e-05
aF6.269002915086355e-05
aF0.0001253800583017271
aF0.00018807008745259067
asS'cat'
p108
(lp109
F0.0005072477905456816
aF0.00023411436486723763
aF0.000273160071802076
aF0.00021462577070163115
aF0.0003839262861530586
aF7.073970147845977e-05
aF0.0003301186068994789
aF0.0003536985073922988
aF0.0024449877750611247
aF0.00011345157508603411
aF0.00018908595847672352
aF0.00037817191695344705
aF6.202832626899618e-05
aF0.00045487439263930526
aF0.0003928460663703091
aF0.0002482056797733055
aF0.00026888948642108095
aF0.00041350507577480515
aF0.0001860772840986623
aF0.0001398079970174294
aF0.00023301332836238233
aF0.00022580813256674366
aF0.00022821931876533348
aF0.0001996919039196668
aF3.3987016959521466e-05
aF0.00018692859327736804
aF0.00016993508479760732
aF0.00014319723629333954
aF0.0002505951635133442
aF0.0002717668240649523
aF0.0002038251180487142
aF6.278055058542864e-05
aF0.0003766833035125718
aF0.00028251247763442887
aF0.00021970434073004613
aF0.0002824770095100593
aF0.0009734991887506761
aF0.00028844420407427436
aF0.000252370479864441
aF0.00010817827780181739
aF0.00018029712966969566
aF0.0003609065973726
aF0.00043308791684711995
aF0.00021468057319713044
aF0.000268350716496413
aF0.00019680460880611167
aF0.0002504785930259603
aF8.275747920718336e-05
aF7.867820613690008e-05
aF0.0003147128245476003
aF7.867820613690008e-05
aF0.00047206923682140047
aF0.0005114083398898505
aF0.0003539544578597554
aF0.00023596963857317024
aF0.00019666456891126495
aF7.866582756450598e-05
aF0.0007079924480805538
aF0.00023599748269351794
aF0.000143143429716576
aF0.00017894209433827213
aF0.0001431536754706177
aF0.000284665991902834
aF0.00020559210526315788
aF0.00022148394241417498
aF0.00023730422401518748
aF0.0002689873417721519
aF0.00015822784810126583
aF0.00017025140457408773
aF0.0002837523409568129
aF0.00028354315526823184
aF0.00014177157763411592
aF0.00011333050007083156
aF0.0012749681257968552
aF0.001048307125655192
aF0.00021549402004094386
aF0.0003447904320655102
aF0.00018887078877163161
aF0.00018887078877163161
aF3.4940600978336826e-05
aF0.00033193570929419987
aF0.00022711390635918937
aF0.0002620545073375262
aF0.0001222921034241789
aF0.00031476785870420565
aF0.0003847162717495847
aF0.0003956348290527843
aF0.0001318782763509281
aF0.0009681881051175657
aF0.00027662517289073305
aF0.0002605523710265763
aF0.0001563314226159458
aF0.00014988009592326138
aF0.00026217228464419474
aF0.00022471910112359551
aF4.352367688022284e-05
aF0.00026114206128133706
aF0.00013057103064066853
aF0.00010878078496214429
aF0.0006744408667652946
aF0.00039161082586371945
aF0.00030009753169780176
aF0.00033760972316002703
aF0.00018756095731112612
aF0.00011253657438667567
aF7.502438292445044e-05
aF0.00026258534023557655
aF0.00011253657438667567
aF0.00011252813203300826
aF0.00022508159207712796
aF0.0001500543947180853
aF0.00010865628395508874
aF0.00014487504527345164
aF0.00024864488537470786
aF0.00027350937391217863
aF7.453416149068323e-05
aF0.0006211180124223603
aF0.0006956521739130435
aF3.230078490907329e-05
aF0.00020995510190897638
aF0.0003714590264543428
aF0.00019373900127544843
aF0.0002744635851402186
aF0.0003552569961406172
aF0.0002583687244659034
aF6.270182148791423e-05
aF0.0005016145719033138
aF0.0004389127504153996
aF6.269985579033168e-05
aF0.0003134992789516584
aF0.00028214935105649256
asS'aat'
p110
(lp111
F0.00011701837188438584
aF0.0001560244958458478
aF0.00021453368178804072
aF0.0002340367437687717
aF0.0005073071744941562
aF0.00013658270082534974
aF0.0003839017211593832
aF0.00025593448077292216
aF7.072469234758829e-05
aF0.00028289876939035315
aF4.714979489839219e-05
aF0.00025933609958506224
aF0.0001886080724254998
aF0.0002647103312660717
aF0.00022689456965663287
aF0.0003307083359169922
aF0.00014468489696368409
aF0.0003728387006571282
aF0.00013981451274642308
aF0.00040767100949533726
aF8.493146031152859e-05
aF0.00025481602283151564
aF0.00016987734855434375
aF0.0003138436430970091
aF9.41649141529866e-05
aF0.0002511064377412976
aF0.00040808638874937215
aF0.00022151548234996282
aF0.00036391829243208177
aF0.00012654623683128224
aF0.00017400107564301306
aF0.00017236921485822633
aF6.463845557183487e-05
aF0.00019400732916576848
aF0.00030178917870230654
aF0.0001563640154279162
aF0.00037448975770512676
aF0.00018724487885256338
aF0.00026225086168140267
aF7.49288176232579e-05
aF0.0004870373145511764
aF0.00045689917758148037
aF6.527131108306863e-05
aF0.00023954182182443762
aF0.00013065917554060233
aF4.351610095735422e-05
aF0.000195822454308094
aF0.00015230635335073978
aF0.00019589491326208562
aF8.706440589426028e-05
aF0.00018754688672168043
aF7.501875468867217e-05
aF7.24427702115329e-05
aF0.00010866415531729933
aF0.00046386287329916947
aF0.00015673981191222572
aF6.269592476489028e-05
asS'att'
p112
(lp113
F5.853430110044486e-05
aF0.0004292515414032623
aF3.902972113264251e-05
aF0.00039029721132642506
aF0.00030653870640665894
aF7.072635971426551e-05
aF0.000330056345333239
aF0.0002895732930688564
aF0.0003514720476347999
aF0.0001866019779809666
aF3.473971270257595e-05
aF0.0002084382762154557
aF7.159861814666977e-05
aF0.0002147958544400093
aF0.00012556110117085728
aF0.0008789277081960009
aF0.00010817827780181739
aF0.00021635655560363478
aF0.00010822120414126474
aF0.0002164424082825295
aF0.00017879492222420883
aF0.00014313062458626305
aF7.867820613690008e-05
aF0.00012658027562855017
aF0.00022151548234996282
aF9.493520672141264e-05
aF0.00012654623683128224
aF7.909139801955139e-05
aF8.509189925119128e-05
aF0.0002836396641706376
aF5.672793283412752e-05
aF0.0001701258931609391
aF0.0002551888397414086
aF4.311273981461522e-05
aF0.0002155636990730761
aF0.00016530096582992893
aF0.0001048474469646664
aF0.0002096948939293328
aF0.0002795931919057771
aF0.00011239322643488685
aF0.0001498576352465158
aF4.6061722708429294e-05
aF0.0002533394748963611
aF6.528551532033427e-05
aF0.00039171309192200557
aF4.353030797692894e-05
aF0.0001305909239307868
aF7.502438292445044e-05
aF0.00011253657438667567
aF0.00018753985221859644
aF0.00015001500150015003
aF7.500750075007501e-05
aF7.501312729727703e-05
aF0.00018753281824319257
aF0.0001448855404230658
aF0.0002897710808461316
aF0.00025364156822958186
aF0.00011042646701561431
aF0.0002871088142405972
asS'tga'
p114
(lp115
F7.800920508620017e-05
aF7.800920508620017e-05
aF0.00035104142288790077
aF0.00015124016938898973
aF0.00045372050816696913
aF9.320098793047206e-05
aF0.00023300246982618016
aF0.00037280395172188826
aF0.00027958993476234854
aF0.0001863932898415657
aF0.00027958993476234854
aF0.00013987970345502866
aF0.00013987970345502866
aF0.0010075391724281694
aF5.211409512559497e-05
aF0.0003738254235272128
aF5.09761941173472e-05
aF0.00013597117411108845
aF0.00013597117411108845
aF0.0004249099190971514
aF0.0002512010550444312
aF6.28002637611078e-05
aF0.0002826011869249851
aF6.576135205339822e-05
aF6.576135205339822e-05
aF0.0005589714924538849
aF0.00014425851125216387
aF7.212925562608193e-05
aF0.00014425851125216387
aF0.00010822120414126474
aF7.214746942750983e-05
aF0.00032466361242379423
aF0.0001609845097127321
aF0.0001609845097127321
aF0.00023253318069616858
aF0.00015729453401494299
aF0.00023600676552727845
aF0.00023600676552727845
aF0.00039334460921213073
aF7.157683773530885e-05
aF7.157683773530885e-05
aF0.00046524944527950754
aF0.00017402585074910218
aF0.00015820531886282017
aF0.00015820531886282017
aF0.00014233974916573092
aF0.0001265242214806497
aF0.0002372329152762182
aF0.00017400107564301306
aF0.00012654623683128224
aF0.0004587301085133981
aF8.508224617129892e-05
aF0.00011344299489506523
aF0.000368689733408962
aF0.00011335940599671258
aF0.00017003910899506886
aF0.00039675792098849404
aF0.0002621598475977419
aF8.738661586591398e-05
aF0.00033206914029047314
aF0.00048369264787175237
aF0.00020729684908789387
aF0.00020718232044198895
aF0.00020718232044198895
aF0.00015635586595090425
aF0.00018733608092918696
aF0.00018733608092918696
aF0.00011240164855751218
aF8.705303706283053e-05
aF6.52897777971229e-05
aF0.0004570284445798603
aF0.00026110228682086207
aF0.00013055114341043104
aF0.00028286081072260056
aF0.00022226263361015133
aF4.0411387929118424e-05
aF0.00028287971550382897
aF0.00020209369063497838
aF0.00014146558344448485
aF0.000505234226587446
aF7.500468779298706e-05
aF0.00015000937558597413
aF7.500468779298706e-05
aF0.0003375210950684418
aF0.00015000937558597413
aF0.0001550339524355834
aF0.0001240271619484667
aF0.00018604074292270006
aF0.00021708792060784617
aF6.202512017367033e-05
aF9.30376802605055e-05
aF7.242702976750923e-05
aF7.242702976750923e-05
aF0.0001448960370933855
aF0.0002535680649134246
aF0.0001987083954297069
aF0.00014903129657228018
aF0.00022354694485842027
aF0.00016142571188738943
aF8.068290006615997e-05
aF0.00012914890869172155
aF0.0003134501457543178
aF0.00018807008745259067
asS'cta'
p116
(lp117
F0.00013659336156262805
aF3.9026674732179446e-05
aF5.851603339314972e-05
aF0.00013653741125068268
aF0.0003204101249599487
aF8.274036074797286e-05
aF0.00024822108224391857
aF4.1335978835978834e-05
aF0.00016534391534391533
aF6.204243702692642e-05
aF0.00018612731108077926
aF0.0004660483758214103
aF0.0005126532134035513
aF0.00010428434865733901
aF0.00024333014686712435
aF8.690362388111584e-05
aF8.690362388111584e-05
aF0.00010199224858910723
aF0.00018698578908002991
aF0.00018028412778538978
aF7.216569242981887e-05
aF7.216569242981887e-05
aF7.212925562608193e-05
aF0.0002359510794761886
aF7.871536523929471e-05
aF7.871536523929471e-05
aF7.161528270132846e-05
aF0.0001074229240519927
aF0.00012654023188497492
aF6.327011594248746e-05
aF0.00020557584958173222
aF0.0004427787529452694
aF8.622733837763262e-05
aF0.00021556834594408156
aF0.0001293493726555426
aF7.082152974504249e-05
aF0.00025967894239848916
aF0.00041927256210474827
aF3.4939380175395687e-05
aF0.00018731502641141872
aF0.00026128990114532074
aF0.0005225798022906415
aF8.707198676505802e-05
aF0.00019591197022138053
aF0.00010102846982279606
aF0.00012123416378735527
aF0.00011252813203300826
aF0.00011252813203300826
aF0.0002625164072754547
aF7.501312729727703e-05
aF0.00011251969094591554
aF7.501594088743858e-05
aF0.00018606381989022235
aF0.00015505318324185194
aF0.00018106757441877308
aF0.0005794162381400739
aF7.241653993772178e-05
aF0.0002534578897820262
aF4.418229615393112e-05
aF0.0001546380365387589
aF0.00015463462048246002
aF0.00035345056110276576
aF3.234518784467841e-05
aF0.00033962447236912327
aF8.086296961169601e-05
asS'ctc'
p118
(lp119
F0.00026666119669340116
aF0.00016409919796516993
aF0.00019516764901050002
aF0.00011710058940630001
aF0.00028290543885706204
aF0.0006836881439045665
aF7.563438339068941e-05
aF0.00022690315017206823
aF0.00022736668044646548
aF0.0007441091360066144
aF0.00045488379786618144
aF0.0007030022330659168
aF4.1353072533289225e-05
aF0.0002796159940348588
aF0.00046602665672476466
aF9.319230231582871e-05
aF0.00013978845347374308
aF0.00012173066221480245
aF0.0001391207568169171
aF6.956037840845854e-05
aF0.0002608514190317195
aF8.686889745995344e-05
aF0.00017373779491990687
aF0.00013901438798915688
aF0.00022589838048237993
aF0.0001389685062622683
aF0.00033005020237288725
aF3.4742126565567075e-05
aF5.212858384013901e-05
aF0.00010425716768027802
aF0.00013898782119216803
aF0.00019110825413923106
aF0.00012170949681816602
aF0.0002260319226623083
aF0.00015292598382382928
aF0.0001869095357846802
aF0.00020390824129141885
aF0.0003058623619371283
aF6.802721088435374e-05
aF0.0002891156462585034
aF3.401360544217687e-05
aF0.00022082929895191018
aF0.00016986869150146936
aF0.0002197112366603892
aF0.00031387319522912746
aF0.00031382394476698575
aF0.0005962654950572729
aF0.00014421170277968058
aF0.00010815877708476043
aF0.00014425330881027084
aF0.00030396767214404494
aF0.0006258157955906807
aF3.5760902605181755e-05
aF0.0005543237250554324
aF0.0004470352621414777
aF0.00014305128388527287
aF8.94822556687009e-05
aF0.0003221361204073232
aF5.368935340122054e-05
aF0.00010737294201861131
aF0.00012526843235504653
aF0.00014318185885848263
aF0.00016107959121579296
aF0.00019668777782148617
aF0.0001180126666928917
aF0.0001966336322164543
aF7.865345288658172e-05
aF0.00023620187386819936
aF7.873395795606645e-05
aF0.0001073998496402105
aF0.000214799699280421
aF0.0001073998496402105
aF0.00014319979952028068
aF0.00014317929627375881
aF0.0003937430647528367
aF0.0001432921368439907
aF0.00017911517105498835
aF0.00015811776611220036
aF0.00039529441528050093
aF9.491117895502792e-05
aF9.491117895502792e-05
aF0.00012654423511918885
aF6.327211755959442e-05
aF0.00011068068622025456
aF0.0001897383192347221
aF0.000198857986989006
aF0.0001704497031334337
aF8.551637638607793e-05
aF0.0002280436703628745
aF4.3106235316938593e-05
aF0.00012931870595081577
aF0.0001416530915787237
aF4.7217697192907904e-05
aF0.0001180888500507782
aF0.0002834132401218677
aF4.725562932684356e-05
aF0.0003544172199513267
aF0.00016530096582992893
aF0.00018891538951991876
aF9.446884889707619e-05
aF0.00012235623142807202
aF0.00022723300122356232
aF6.991906867800521e-05
aF9.890870726319607e-05
aF0.00023078698361412417
aF6.596523632045912e-05
aF9.894785448068868e-05
aF0.00013818835072203412
aF0.0003454708768050853
aF0.00010422094841063054
aF0.0002605523710265763
aF0.00015649452269170578
aF0.00010432968179447053
aF0.00014982956886541558
aF0.00037457392216353895
aF7.493724006144853e-05
aF0.0005245606804301397
aF0.00014990818123899113
aF0.00022486227185848667
aF0.000161727246997938
aF0.000161727246997938
aF0.00015002625459455406
aF0.00015513015419937328
aF6.205206167974932e-05
aF0.000217296827466319
aF0.00012408102490926574
aF0.00018612153736389863
aF7.853403141361256e-05
aF0.00010471204188481675
aF7.453971724600591e-05
aF7.453971724600591e-05
aF0.0001739087227646518
aF0.0001739087227646518
aF6.62939473626058e-05
aF8.839192981680772e-05
aF0.0001325878947252116
aF0.00011048991227100966
aF8.836459230786225e-05
aF0.0001546380365387589
aF6.626758852245367e-05
aF0.00030924874643811713
aF9.687732101914941e-05
aF0.00020990086220815706
asS'cac'
p120
(lp121
F0.00025357442409347145
aF0.0003511030487448066
aF7.802442164397456e-05
aF0.0008777747434947138
aF0.00031209768657589824
aF0.0005118362124120282
aF0.0002559181062060141
aF0.00019203687107924723
aF0.0001650670879807579
aF0.0001179050628433985
aF0.0003536901674133459
aF0.0002829521339306767
aF4.7153129788989744e-05
aF0.0005186844276788871
aF0.0004951078627843923
aF0.00028949545078577337
aF0.00016542597187758478
aF0.0001860888263998015
aF0.0001447357538665123
aF0.00047555050139563734
aF0.00016540887005065647
aF0.00023300246982618016
aF0.0002796029637914162
aF0.00041940444568712426
aF0.00018640197586094413
aF0.00023304591004427873
aF0.0003262642740619902
aF3.473307630856865e-05
aF0.00019103191969712757
aF0.0001389323052342746
aF0.00020852158198373532
aF0.00013901438798915688
aF5.2113189848350616e-05
aF0.00036479232893845434
aF0.0001389685062622683
aF3.473126682295737e-05
aF0.00013892506729182947
aF0.000329947034818095
aF0.0003129672775324269
aF0.00020864485168828458
aF5.699629524080935e-05
aF0.0003989740666856654
aF0.0001994870333428327
aF0.00022085180843653908
aF6.795440259585817e-05
aF5.09614731263165e-05
aF0.00016987157708772167
aF0.000203845892505266
aF0.0002379010331702012
aF0.00016992930940728658
aF6.28002637611078e-05
aF0.0001570006594027695
aF0.0001884007912833234
aF0.00025133521834747095
aF0.00015708451146716933
aF0.0002199390454645427
aF0.0003141986363779181
aF0.0002199390454645427
aF5.363847666726265e-05
aF0.0002145539066690506
aF0.00025031289111389235
aF0.00019669903259839422
aF0.00023246249307082954
aF3.577113627014362e-05
aF0.00030405465829622076
aF0.0001609701132156463
aF0.00019671873155761892
aF7.868749262304757e-05
aF7.866273352999017e-05
aF0.00031465093411996067
aF0.00039331366764995085
aF0.00019671873155761892
aF0.00019671873155761892
aF0.0002753737214791503
aF0.00011801730920535012
aF0.0004652827487473157
aF0.00021474588403722262
aF0.00023717289904340264
aF0.0001581152660289351
aF0.00014247494815494943
aF0.0002532887967199101
aF0.0006173914420047809
aF0.00012664439835995505
aF0.0002374582469249157
aF0.00033244154569488197
aF4.744433198380567e-05
aF0.00025303643724696357
aF0.000284665991902834
aF0.001702127659574468
aF5.681656771114457e-05
aF0.00198857986989006
aF0.0009374733672338854
aF0.0001416530915787237
aF7.082654578936186e-05
aF0.0002361275088547816
aF0.00018890200708382527
aF0.00023621675249208674
aF0.00014173005149525203
aF0.00016578249336870026
aF0.00021314892004547177
aF7.091863268876176e-05
aF0.00028367453075504704
aF0.00018911635383669803
aF0.0004491725768321513
aF0.00014184397163120567
aF7.083825265643447e-05
aF0.0001180637544273908
aF9.445100354191263e-05
aF5.2431969519548384e-05
aF0.00015729590855864515
aF0.00013981858538546238
aF9.897723523589574e-05
aF0.00013196964698119432
aF0.00015635586595090425
aF0.0008338979517381561
aF0.0005733048418199823
aF0.00020851795860918522
aF0.00046916540687066673
aF0.0001872729315704708
aF0.0004901775951133065
aF0.00018852984427434862
aF8.706819616464596e-05
aF0.0002176704904116149
aF0.00013060229424696895
aF0.00022509003601440576
aF0.00033763505402160867
aF0.00015507241881958876
aF0.00015507241881958876
aF0.00031013521895546456
aF0.00031013521895546456
aF0.00018108724783600738
aF0.00010865234870160443
aF0.00030929657122658185
aF0.00019883351007423118
aF0.00026504108136761196
aF0.00039756162205141797
aF4.416570974295557e-05
aF0.00041957424255807793
aF0.00019874569384330007
aF4.417448923246825e-05
aF0.00024295969077857538
aF0.00022087244616234125
aF0.00032276284999596547
aF0.00029048656499636893
aF0.00017758548319395565
asS'caa'
p122
(lp123
F5.8512609467340214e-05
aF0.0008581849388543231
aF0.0006046302978291822
aF3.901906081120628e-05
aF0.00023411436486723763
aF0.00019509530405603136
aF0.00025621316935690495
aF0.0003202664616961312
aF0.00025621316935690495
aF4.9814441206505766e-05
aF0.0002739794266357817
aF0.0001494433236195173
aF0.003003003003003003
aF0.0003025032140966498
aF0.0001890645088104061
aF0.00035153019023986766
aF0.00039288668320926385
aF0.00039288668320926385
aF0.00022746071133167907
aF4.133427024345885e-05
aF0.00031000702682594137
aF0.00026867275658248256
aF8.269759556740888e-05
aF0.00024809278670222663
aF0.0002067439889185222
aF0.00041352217512664115
aF0.00018608497880698852
aF0.0003728560775540641
aF0.00018642803877703205
aF0.00031279324366593683
aF0.00019115142668473916
aF0.0008557003907698451
aF0.0003993268490259277
aF0.0003568454859046033
aF0.00010195585311560094
aF0.00022090059473237042
aF6.796941376380628e-05
aF0.0003453689167974882
aF0.00012558869701726844
aF0.0001884007912833234
aF0.0002512010550444312
aF0.0002824770095100593
aF0.0003138633439000659
aF0.000252507034124522
aF0.0003607243344636029
aF7.214486689272058e-05
aF3.579290226748036e-05
aF0.0002863432181398429
aF0.0001789645113374018
aF3.5764739543284276e-05
aF0.00039341213497612706
aF0.0003040002861179163
aF0.00011805446245868093
aF0.00031481189988981584
aF0.0003221188260558339
aF7.158196134574088e-05
aF3.165007675143612e-05
aF0.00018990046050861673
aF0.00014242534538146256
aF0.00014236226450908745
aF0.0002214524114585805
aF0.0002532887967199101
aF0.00018996659753993256
aF3.163956210846042e-05
aF0.0003163956210846042
aF0.00022147693475922293
aF3.4940600978336826e-05
aF0.00029699510831586305
aF0.00022711390635918937
aF0.00019790876405976845
aF0.00016492397004980703
aF0.00023089355806972986
aF9.895438202988422e-05
aF0.0004169707078077765
aF0.0001563640154279162
aF0.0002247696111485727
aF0.0001498464074323818
aF0.00018729397662571172
aF7.491759065028469e-05
aF4.351326066618802e-05
aF0.00047864586732806823
aF0.00032634945499641015
aF0.0003482727846585838
aF0.00015236934328813042
aF7.502438292445044e-05
aF0.00037512191462225225
aF0.00030009753169780176
aF0.00021730469740320886
aF0.00021730469740320886
aF0.0004349244318799609
aF7.24874053133268e-05
aF0.00019883351007423118
aF0.00015464828561329093
aF0.00030924874643811713
aF0.00024298115791566345
aF0.00028719761405059097
aF0.00015464486910416437
aF0.000129136400322841
aF0.000387409200968523
aF0.0008778255008307992
aF0.00037621092892748537
asS'agt'
p124
(lp125
F0.0001560823334308848
aF0.0002341235001463272
aF0.0003511852502194908
aF0.00021215907215765776
aF0.00018858584191791802
aF0.0002357323023973975
aF4.717426172280404e-05
aF9.434852344560808e-05
aF0.00030663270119822626
aF7.562294400120997e-05
aF0.00015124588800241993
aF0.00011343441600181494
aF7.569449701006736e-05
aF0.0002649307395352358
aF7.569449701006736e-05
aF0.00015120586678763135
aF0.0003024117335752627
aF0.0002646102668783549
aF0.00016540203030992207
aF0.0001447267765211818
aF0.0003721545681973246
aF0.00026071087164334755
aF0.00017380724776223168
aF0.0003302337707482402
aF0.00013891059366914968
aF0.00024309353892101195
aF0.00027782118733829937
aF0.00019973178874083374
aF0.00034239735212714356
aF0.00013588802826470988
aF0.00011890202473162115
aF0.00010191602119853241
aF0.00023782828797608128
aF0.00021967676133689002
aF9.414718343009572e-05
aF0.00028852742813863746
aF7.213185703465936e-05
aF0.00018043376276568872
aF7.217350510627549e-05
aF0.00018043376276568872
aF0.00018031013342949875
aF3.57577057855968e-05
aF8.939426446399198e-05
aF0.000268182793391976
aF7.868130138872497e-05
aF0.00019670325347181242
aF0.00011802195208308746
aF0.00019842057224493036
aF7.157427620513188e-05
aF0.0001789356905128297
aF0.0002862971048205275
aF0.000322407307898979
aF0.0001432921368439907
aF0.00010746910263299302
aF6.324010687578062e-05
aF0.00017391029390839672
aF0.00018972032062734186
aF0.00017031422975389594
aF0.00011331123764199315
aF8.498342823149486e-05
aF5.6655618820996573e-05
aF0.00025855382228733947
aF0.0001939153667155046
aF0.00017236921485822633
aF0.0001293521612590277
aF0.000150910854802199
aF0.000150910854802199
aF0.0002588159171789065
aF0.00012940795858945326
aF0.00028038391027714873
aF8.618460742911317e-05
aF4.309230371455658e-05
aF0.0002800999741446178
aF0.00012231133476612324
aF0.0002446226695322465
aF0.00019220352606105082
aF8.703977717817043e-05
aF0.00023935938723996866
aF0.00023935938723996866
aF4.3528413171697824e-05
aF0.00013058523951509348
aF0.00023940627244433804
aF0.00016376663254861822
aF0.00020470829068577277
aF0.0002661207778915046
aF0.0005251115862120701
aF0.00034108527131782945
aF0.00024806201550387597
aF9.302325581395348e-05
aF0.00018615618503924793
aF0.00012410412335949863
aF0.00014486455164421265
aF0.00032589803012746235
aF0.00021726535341830822
aF0.00021726535341830822
aF0.00010863661053775122
aF7.242440702516749e-05
aF7.242440702516749e-05
aF0.00039829096965746975
aF0.00010862480990658266
aF0.00014483307987544355
aF0.00021725748633088314
aF0.00021725748633088314
aF0.00018104790527573596
aF0.00028968713789107763
aF7.242178447276941e-05
aF0.00021726535341830822
aF0.00010862874316544157
aF0.00010862874316544157
aF0.00018104790527573596
aF8.831581736288969e-05
aF0.00015455268038505696
aF0.00022078954340722424
aF0.0028988714317326842
aF4.425757911042266e-05
aF0.0003066296559292492
aF4.841520883093409e-05
aF3.2277326791795104e-05
aF0.00012910930716718042
aF0.0003066346045220535
aF0.00024224414980378225
aF0.00014534648988226935
aF0.0003391418097252951
aF6.455048654929236e-05
aF9.682572982393854e-05
aF0.0004034405409330773
asS'cca'
p126
(lp127
F0.0001365294220904605
aF0.0007996723293869829
aF0.00015607319833001678
aF0.0005657653439463109
aF0.0001170389154393836
aF0.0006437140349166097
aF0.0003038128512836093
aF0.0010633449794926325
aF0.00012793449753726091
aF0.0007676069852235655
aF0.00018863475595378448
aF4.715868898844612e-05
aF0.0005187455788729073
aF0.0006131063267856722
aF7.072469234758829e-05
aF0.000730821820925079
aF0.00011347303124290794
aF0.0005295408124669037
aF7.562008469449486e-05
aF7.562008469449486e-05
aF0.0005671506352087115
aF0.0004544077552256892
aF0.0006437443199030597
aF0.00014467293582721917
aF0.0008680376149633151
aF0.00016538151448121887
aF4.1345378620304716e-05
aF0.0007648895044756372
aF0.0001033719944592611
aF4.134879778370444e-05
aF0.0008269759556740888
aF0.000124025880066974
aF4.134196002232466e-05
aF0.0006614713603571946
aF0.00013977542747984904
aF9.318361831989936e-05
aF0.0009318361831989936
aF0.0001398014818957081
aF0.0009786103732699566
aF0.0007923191648023862
aF9.318361831989936e-05
aF0.000885244374039044
aF8.681158413778734e-05
aF6.944926731022988e-05
aF0.0006076810889645114
aF0.00013901438798915688
aF0.0005734343504552722
aF0.00019103855505383813
aF0.0005036470996873915
aF0.00017098888572242806
aF5.699629524080935e-05
aF0.00031347962382445143
aF3.3987016959521466e-05
aF0.00013594806783808586
aF8.949827268333722e-05
aF0.0007517854905400326
aF6.79671039217019e-05
aF0.0008495887990212737
aF8.496176720475786e-05
aF0.0005437553101104503
aF0.00018688095683049897
aF0.0007984913610030411
aF0.00016989177893681726
aF6.79567115747269e-05
aF0.0009344047841524949
aF0.00010195758564437195
aF0.00018692224034801524
aF6.278055058542864e-05
aF0.0006591957811470006
aF0.0006276872861940182
aF0.0006283972727558362
aF0.00018838304552590266
aF0.00043956043956043956
aF7.214486689272058e-05
aF0.00014428973378544116
aF5.367014329928261e-05
aF0.0007871621017228116
aF7.152180521036351e-05
aF0.0008403812112217713
aF3.576601870562778e-05
aF0.0003934262057619056
aF0.00011805446245868093
aF7.870297497245396e-05
aF0.000353968378824825
aF0.000353968378824825
aF0.00019667230460606536
aF0.00102269598395154
aF7.866892184242615e-05
aF7.866892184242615e-05
aF0.0007080202965818353
aF7.866273352999017e-05
aF0.00021486892995272884
aF0.00010743446497636442
aF0.0004297378599054577
aF0.00010738831615120275
aF0.00032216494845360824
aF7.158964813687941e-05
aF0.0006443068332319147
aF6.330015350287224e-05
aF0.00011077526863002642
aF0.00012647221563512765
aF6.323610781756383e-05
aF0.001046240667057686
aF3.170426263811169e-05
aF0.0002853383637430052
aF0.00022676379715978344
aF0.0005952549675444315
aF0.00014187617047840644
aF0.000794506554679076
aF0.00016997167138810198
aF0.001643059490084986
aF9.445100354191263e-05
aF0.0004014167650531287
aF4.7366426676771504e-05
aF0.0006157635467980296
aF7.091863268876176e-05
aF0.0007564654153467921
aF7.092198581560284e-05
aF0.0005200945626477542
aF4.722773212430339e-05
aF0.0005903466515537924
aF0.00014167650531286894
aF4.722550177095632e-05
aF9.445100354191263e-05
aF9.52925481227368e-05
aF0.0003097007813988946
aF0.00010483828694239136
aF0.0006465027694780801
aF0.0001048327916972429
aF0.0006639410140825383
aF0.00024468252442455914
aF0.0005767516647150323
aF6.598482349059716e-05
aF0.00046189376443418013
aF6.598046978094485e-05
aF0.0005938242280285036
aF0.00013193047264091823
aF6.596523632045912e-05
aF0.0007586002176852799
aF0.0007597734493714601
aF0.00010424267695194412
aF0.000781820077139581
aF0.00011239322643488685
aF0.0005245017233628053
aF0.0004119387334756394
aF0.00019628797627096464
aF0.0007633421299426403
aF4.3514207388712415e-05
aF0.0009137983551629607
aF8.56384345294168e-05
aF0.0007707459107647512
aF6.42288258970626e-05
aF0.000749336302132397
aF8.083420903726457e-05
aF0.0005456309110015359
aF0.00011252813203300826
aF0.00011251547087724562
aF0.0006375876683043919
aF0.0006750675067506751
aF7.500468779298706e-05
aF0.000562535158447403
aF6.202704379109291e-05
aF0.00024810817516437165
aF6.200973552847798e-05
aF6.200973552847798e-05
aF0.0004340681486993458
aF0.00021732831063459867
aF0.0006157635467980296
aF0.00010863267670915411
aF0.0006517960602549247
aF0.000760483812558847
aF0.0001490127902644977
aF0.0004470383707934931
aF9.937888198757764e-05
aF0.0007950310559006211
aF0.00011039720915855248
aF6.623832549513148e-05
aF0.00022085781174080126
aF0.0007067449975705641
aF6.627344423089668e-05
aF0.0004639141096162768
aF8.072458386477018e-05
aF0.00035518816900498876
aF0.00011299252635147132
aF0.0007748058949815177
aF0.0006951404830418055
aF3.233211549031653e-05
aF0.00019399269294189918
aF0.00012539184952978057
aF0.0008150470219435736
aF0.00037715686582644496
aF0.0007543137316528899
asS'ccc'
p128
(lp129
F0.00011338725527250737
aF0.000831506538665054
aF0.0001653268304780012
aF4.13317076195003e-05
aF0.0007233048833412552
aF0.00022730090507087656
aF4.132743728561392e-05
aF0.0007232301524982436
aF0.0002796159940348588
aF0.000699039985087147
aF0.0005593101841062689
aF0.0009787928221859706
aF0.00020836589050372454
aF6.945529683457484e-05
aF0.0007987359135976107
aF0.00010417570969702231
aF0.0007118673495963192
aF0.0001869095357846802
aF0.0007136545911778699
aF0.00011892424525577207
aF0.0007135454715346324
aF0.0003139126067302863
aF0.0007847815168257157
aF0.00012553351744915893
aF0.0006590509666080844
aF0.00018835347669125726
aF6.278449223041909e-05
aF0.0005650604300737718
aF0.00040813763656913224
aF0.0008790656787642849
aF0.00040845822729129353
aF0.0004712979545668772
aF0.00015722776013332913
aF0.0010377032168799724
aF7.211365111415591e-05
aF7.211365111415591e-05
aF0.0005769092089132473
aF0.00012515868333065136
aF3.575962380875753e-05
aF0.0005900337928444993
aF7.15371546096754e-05
aF3.57685773048377e-05
aF0.0006617186801394974
aF0.00023600676552727845
aF0.0008260236793454746
aF0.00031474997049219026
aF0.0006688436872959043
aF7.15922107674685e-05
aF0.0008949026345933562
aF7.905638301236442e-05
aF3.162255320494577e-05
aF0.00014230148942225596
aF0.0003400300359865121
aF5.667167266441869e-05
aF0.0005950525629763963
aF0.0001699668564629897
aF0.0005099005693889691
aF9.962143853357243e-05
aF0.0007720661486351863
aF4.730368968779565e-05
aF9.46073793755913e-05
aF0.0004730368968779565
aF0.00014161631419939578
aF0.00028323262839879157
aF7.082320168087065e-05
aF0.0001416464033617413
aF0.00016524243425711723
aF4.7212124073462063e-05
aF9.442424814692413e-05
aF5.516125473467436e-05
aF0.0005699996322583018
aF0.0001048327916972429
aF0.0007687738057797813
aF0.00017482211849443192
aF0.0005069841436338526
aF8.73591333973967e-05
aF0.0004892111470254215
aF0.0005933739904400858
aF0.00016492397004980703
aF0.0006926806742091896
aF0.00013818835072203412
aF0.0005527534028881365
aF0.00031284217112466763
aF7.493724006144853e-05
aF0.00016162922256343946
aF0.0006869241958946178
aF0.00018323221629545176
aF0.00010179567571969543
aF0.0004071827028787817
aF0.0001616651510558755
aF6.062443164595332e-05
aF0.000868950186925331
aF0.000303060915243964
aF8.081624406505707e-05
aF0.0006869380745529851
aF0.0001212268153715602
aF6.06134076857801e-05
aF0.0007677698306865478
aF4.0408122032528536e-05
aF8.081624406505707e-05
aF0.0007071421355692494
aF0.00018758910482479177
aF0.0007503564192991671
aF9.304633707586378e-05
aF0.0007133552509149556
aF0.0004961240310077519
aF0.0002480389421139119
aF0.0006200973552847797
aF0.00010866415531729933
aF0.0005433207765864966
aF0.0007966396292004635
aF4.967339741201599e-05
aF0.00039738717929612793
aF4.419596490840386e-05
aF0.0001325878947252116
aF0.0007509165599187244
aF0.00011301441741067825
aF0.00046820258641566703
aF0.00024211120974901139
aF0.000403518682915019
aF0.0003134501457543178
aF9.403504372629533e-05
aF0.0005955552769332038
asS'taa'
p130
(lp131
F5.854001209826917e-05
aF0.00011708002419653834
aF0.0001926782273603083
aF0.00038382804503582393
aF0.00012794268167860799
aF0.0003200819409768901
aF0.0001415227851684121
aF0.0001415227851684121
aF0.00021222410865874363
aF0.00011790228258819091
aF8.2687338501292e-05
aF0.00022739018087855297
aF0.00020671834625322997
aF8.272324936923522e-05
aF0.00018612731108077926
aF0.00023302418791070514
aF0.00013981451274642308
aF0.00017106200997861725
aF0.00017106200997861725
aF0.00013593189811904235
aF0.0002548723089732044
aF6.278646323852578e-05
aF0.00012557292647705155
aF0.00018041423107454716
aF0.00018041423107454716
aF0.00011798481928658512
aF0.0001573130923821135
aF7.865963973885e-05
aF0.00027530873908597497
aF0.00015743073047858942
aF0.00022141738759113699
aF0.0014233974916573091
aF0.00019859846228047776
aF0.0002553408800749
aF0.00019402824188854157
aF8.623477417268513e-05
aF0.00015097595168769547
aF0.00010783996549121104
aF8.623291510369507e-05
aF0.00038804811796662784
aF0.00015640477555914708
aF0.00010426985037276472
aF0.0001563721657544957
aF0.0001563721657544957
aF0.00015638031693077564
aF0.00015638031693077564
aF0.00026123301985370953
aF0.0001523859282479972
aF0.0001524357047973694
aF6.532958777030116e-05
aF6.527557170521552e-05
aF0.00010879261950869253
aF0.00011251547087724562
aF0.0003375590728377466
aF0.00015002625459455406
aF0.00026258534023557655
aF7.502438292445044e-05
aF4.425757911042266e-05
aF0.00017703031644169064
aF0.0001938548027527382
aF6.461826758424607e-05
as.