(dp0
S'prevDictLoc'
p1
S'null'
p2
sS'coverage_file'
p3
S'/home/alex/Dropbox/Code/FERMI/testOutput/2015-12-14_5_0.75/coverageData.txt'
p4
sS'varThresh'
p5
F0.75
sS'distance_stringency'
p6
I1
sS'supportingReads'
p7
I5
sS'previousDict'
p8
S'n'
p9
sS'read1'
p10
S'/home/alex/Dropbox/Code/FERMI/testInput/R1.fastq'
p11
sS'pickleOutput'
p12
S'/home/alex/Dropbox/Code/FERMI/testOutput/2015-12-14_5_0.75/sortedSeqData.pkl'
p13
sS'read2'
p14
S'/home/alex/Dropbox/Code/FERMI/testInput/R2.fastq'
p15
sS'twoUmiOut'
p16
S'/home/alex/Dropbox/Code/FERMI/testOutput/2015-12-14_5_0.75/twoUMIs.fastq'
p17
sS'final_output_file'
p18
S'/home/alex/Dropbox/Code/FERMI/testOutput/2015-12-14_5_0.75/finalOutput.fastq'
p19
sS'outputDir'
p20
S'/home/alex/Dropbox/Code/FERMI/testOutput/2015-12-14_5_0.75'
p21
s.