(dp0
S'TTTTTTCCCCCC'
p1
(dp2
S'seqs'
p3
(lp4
S'AAAAAAAAAAAAAAAAAAAAAAAAAAAAAAAAAAAAAAAAAAAAAAAAAAAAAAAAAAAAAAAA'
p5
aS'AAAAAAAAAAAAAAAAAAAAAAAAAAAAAAAAAAAAAAAAAAAAAAAAAAAAAAAAAAAAAAAA'
p6
aS'AAAAAAAAAAAAAAAAAAAAAAAAAAAAAAAAAAAAAAAAAAAAAAAAAAAAAAAAAAAAAAAA'
p7
aS'AAAAAAAAAAAAAAAAAAAAAAAAAAAAAAAAAAAAAAAAAAAAAAAAAAAAAAAAAAAAAAAA'
p8
aS'AAAAAAAGCAAAAAAAAAAAAAAAAAAAAAAAAAAAAAAAAAAAAAAAAAAAAAAAAAAAAAAA'
p9
asS'header'
p10
S'@Fake Data'
p11
sS'quality'
p12
S'ASD*^@&C#^&*@!%#CF^&@%(#C(@T#D^&@^&#D@^&XXG@GXDGXCT^&EXD@G#XDGXGS@^#ZAASD*^@'
p13
ssS'GGTTTTGGGGGG'
p14
(dp15
g3
(lp16
S'CCCCCCCCCCCCCCCCCCCCCCCCCCCCCCCCCCCCCCCCCCCCCCCCCCCCCCCCCCCCCCCC'
p17
asg10
S'@Fake Data'
p18
sg12
S'ASD*^@&C#^&*@!%#CF^&@%(#C(@T#D^&@^&#D@^&XXG@GXDGXCT^&EXD@G#XDGXGS@^#ZAASD*^@'
p19
ss.