(dp0
S'g.vcf'
p1
ccollections
defaultdict
p2
(c__builtin__
int
p3
tp4
Rp5
(S'CTC'
p6
S'T>A'
p7
tp8
F0.01448191933240612
s(S'GCC'
p9
S'C>A'
p10
tp11
F0.007145340751043116
s(S'TCC'
p12
S'C>A'
p13
tp14
F0.014325452016689846
s(S'TTT'
p15
S'T>G'
p16
tp17
F0.0002781641168289291
s(S'GCG'
p18
S'C>G'
p19
tp20
F0.0012169680111265646
s(S'CTA'
p21
S'T>G'
p22
tp23
F0.0004694019471488178
s(S'CTC'
p24
S'T>G'
p25
tp26
F0.0006606397774687066
s(S'CCG'
p27
S'C>A'
p28
tp29
F0.007023643949930459
s(S'CCC'
p30
S'C>G'
p31
tp32
F0.0017559109874826148
s(S'CCT'
p33
S'C>G'
p34
tp35
F0.002121001390820584
s(S'TCT'
p36
S'C>A'
p37
tp38
F0.015803198887343533
s(S'TCT'
p39
S'C>T'
p40
tp41
F0.029554937413073714
s(S'GTC'
p42
S'T>A'
p43
tp44
F0.01642906815020862
s(S'ATC'
p45
S'T>A'
p46
tp47
F0.009509735744089013
s(S'ATT'
p48
S'T>C'
p49
tp50
F0.009405424200278165
s(S'TTT'
p51
S'T>A'
p52
tp53
F0.004746175243393602
s(S'CCA'
p54
S'C>T'
p55
tp56
F0.041411682892906816
s(S'GCG'
p57
S'C>T'
p58
tp59
F0.012743393602225313
s(S'ACC'
p60
S'C>A'
p61
tp62
F0.012360917941585536
s(S'TTA'
p63
S'T>A'
p64
tp65
F0.004242002781641168
s(S'CCC'
p66
S'C>T'
p67
tp68
F0.026303894297635605
s(S'TCG'
p69
S'C>T'
p70
tp71
F0.009318497913769123
s(S'CTG'
p72
S'T>A'
p73
tp74
F0.008605702364394993
s(S'TCG'
p75
S'C>A'
p76
tp77
F0.005476356050069541
s(S'ACT'
p78
S'C>T'
p79
tp80
F0.02230528511821975
s(S'TCA'
p81
S'C>A'
p82
tp83
F0.00907510431154381
s(S'ATA'
p84
S'T>C'
p85
tp86
F0.008970792767732962
s(S'CTT'
p87
S'T>A'
p88
tp89
F0.007423504867872044
s(S'CCA'
p90
S'C>A'
p91
tp92
F0.01232614742698192
s(S'GCT'
p93
S'C>T'
p94
tp95
F0.022340055632823364
s(S'ACC'
p96
S'C>G'
p97
tp98
F0.004485396383866481
s(S'ATT'
p99
S'T>G'
p100
tp101
F0.00024339360222531294
s(S'ATG'
p102
S'T>A'
p103
tp104
F0.008240611961057024
s(S'CTA'
p105
S'T>A'
p106
tp107
F0.008953407510431154
s(S'TTG'
p108
S'T>C'
p109
tp110
F0.013821279554937413
s(S'TCC'
p111
S'C>T'
p112
tp113
F0.031901947148817805
s(S'ACA'
p114
S'C>T'
p115
tp116
F0.029468011126564674
s(S'GTG'
p117
S'T>C'
p118
tp119
F0.022913769123783033
s(S'ACA'
p120
S'C>G'
p121
tp122
F0.0045027816411682894
s(S'TTC'
p123
S'T>G'
p124
tp125
F0.0006606397774687066
s(S'ACT'
p126
S'C>G'
p127
tp128
F0.002573018080667594
s(S'GTC'
p129
S'T>G'
p130
tp131
F0.0014082058414464534
s(S'ATC'
p132
S'T>C'
p133
tp134
F0.013195410292072322
s(S'GTA'
p135
S'T>A'
p136
tp137
F0.012187065368567455
s(S'TTC'
p138
S'T>A'
p139
tp140
F0.008883866481223923
s(S'ACG'
p141
S'C>G'
p142
tp143
F0.003859527121001391
s(S'ATA'
p144
S'T>G'
p145
tp146
F0.0005910987482614742
s(S'ATG'
p147
S'T>G'
p148
tp149
F0.0003998609179415855
s(S'ACC'
p150
S'C>T'
p151
tp152
F0.025956189151599442
s(S'GCA'
p153
S'C>A'
p154
tp155
F0.003129346314325452
s(S'GTT'
p156
S'T>C'
p157
tp158
F0.01635952712100139
s(S'CTC'
p159
S'T>C'
p160
tp161
F0.023956884561891517
s(S'TTA'
p162
S'T>C'
p163
tp164
F0.010239916550764951
s(S'ACA'
p165
S'C>A'
p166
tp167
F0.00801460361613352
s(S'GCG'
p168
S'C>A'
p169
tp170
F0.004294158553546592
s(S'TTG'
p171
S'T>G'
p172
tp173
F0.0006432545201668985
s(S'CTG'
p174
S'T>G'
p175
tp176
F0.0004867872044506259
s(S'TCG'
p177
S'C>G'
p178
tp179
F0.0023296244784422808
s(S'CCC'
p180
S'C>A'
p181
tp182
F0.010083449235048678
s(S'GTG'
p183
S'T>G'
p184
tp185
F0.0018602225312934631
s(S'CCT'
p186
S'C>A'
p187
tp188
F0.013386648122392212
s(S'GTA'
p189
S'T>G'
p190
tp191
F0.0009040333796940194
s(S'TTC'
p192
S'T>C'
p193
tp194
F0.01888038942976356
s(S'ATA'
p195
S'T>A'
p196
tp197
F0.004589707927677329
s(S'GTC'
p198
S'T>C'
p199
tp200
F0.025678025034770513
s(S'CTG'
p201
S'T>C'
p202
tp203
F0.016515994436717665
s(S'ATC'
p204
S'T>G'
p205
tp206
F0.0003824756606397775
s(S'CTT'
p207
S'T>G'
p208
tp209
F0.0002955493741307371
s(S'GCA'
p210
S'C>G'
p211
tp212
F0.0016515994436717663
s(S'GCT'
p213
S'C>G'
p214
tp215
F0.0008692628650904034
s(S'ATT'
p216
S'T>A'
p217
tp218
F0.005737134909596662
s(S'TTT'
p219
S'T>C'
p220
tp221
F0.01295201668984701
s(S'ATG'
p222
S'T>C'
p223
tp224
F0.01635952712100139
s(S'CTA'
p225
S'T>C'
p226
tp227
F0.014968706536856745
s(S'TTG'
p228
S'T>A'
p229
tp230
F0.007545201668984701
s(S'GCC'
p231
S'C>T'
p232
tp233
F0.025017385257301808
s(S'GTT'
p234
S'T>G'
p235
tp236
F0.0013386648122392212
s(S'GCC'
p237
S'C>G'
p238
tp239
F0.0026947148817802503
s(S'TTA'
p240
S'T>G'
p241
tp242
F0.00013908205841446454
s(S'GTG'
p243
S'T>A'
p244
tp245
F0.016411682892906815
s(S'TCC'
p246
S'C>G'
p247
tp248
F0.0029207232267037552
s(S'CCT'
p249
S'C>T'
p250
tp251
F0.03270166898470098
s(S'ACT'
p252
S'C>A'
p253
tp254
F0.00853616133518776
s(S'CCG'
p255
S'C>T'
p256
tp257
F0.020688456189151598
s(S'CCG'
p258
S'C>G'
p259
tp260
F0.004189847009735744
s(S'GTA'
p261
S'T>C'
p262
tp263
F0.015664116828929067
s(S'TCT'
p264
S'C>G'
p265
tp266
F0.00305980528511822
s(S'GCT'
p267
S'C>A'
p268
tp269
F0.0026425591098748263
s(S'TCA'
p270
S'C>G'
p271
tp272
F0.004885257301808067
s(S'ACG'
p273
S'C>A'
p274
tp275
F0.0061022253129346315
s(S'TCA'
p276
S'C>T'
p277
tp278
F0.038160639777468704
s(S'ACG'
p279
S'C>T'
p280
tp281
F0.011352573018080668
s(S'GCA'
p282
S'C>T'
p283
tp284
F0.022183588317107095
s(S'CTT'
p285
S'T>C'
p286
tp287
F0.014186369958275382
s(S'CCA'
p288
S'C>G'
p289
tp290
F0.0038073713490959665
s(S'GTT'
p291
S'T>A'
p292
tp293
F0.009127260083449235
ssS'q.vcf'
p294
g2
(g3
tp295
Rp296
(S'CTC'
p297
S'T>A'
p298
tp299
F0.0131674904788915
s(S'GCC'
p300
S'C>A'
p301
tp302
F0.006360910785187586
s(S'TCC'
p303
S'C>A'
p304
tp305
F0.013633417065067661
s(S'TTT'
p306
S'T>G'
p307
tp308
F0.00026334980957783
s(S'GCG'
p309
S'C>G'
p310
tp311
F0.0009723685276719876
s(S'CTA'
p312
S'T>G'
p313
tp314
F0.00026334980957783
s(S'CTC'
p315
S'T>G'
p316
tp317
F0.0007090187180941577
s(S'CCG'
p318
S'C>A'
p319
tp320
F0.006968641114982578
s(S'CCC'
p321
S'C>G'
p322
tp323
F0.0011344299489506524
s(S'CCT'
p324
S'C>G'
p325
tp326
F0.0016611295681063123
s(S'TCT'
p327
S'C>A'
p328
tp329
F0.016044080706587797
s(S'TCT'
p330
S'C>T'
p331
tp332
F0.02975852848229479
s(S'GTC'
p333
S'T>A'
p334
tp335
F0.01608459606190746
s(S'ATC'
p336
S'T>A'
p337
tp338
F0.00895389352564622
s(S'ATT'
p339
S'T>C'
p340
tp341
F0.00927801636820355
s(S'TTT'
p342
S'T>A'
p343
tp344
F0.004618750506441942
s(S'CCA'
p345
S'C>T'
p346
tp347
F0.042824730572887125
s(S'GCG'
p348
S'C>T'
p349
tp350
F0.013349809577829998
s(S'ACC'
p351
S'C>A'
p352
tp353
F0.010918888258650028
s(S'TTA'
p354
S'T>A'
p355
tp356
F0.0044364314075034435
s(S'CCC'
p357
S'C>T'
p358
tp359
F0.027712503038651647
s(S'TCG'
p360
S'C>T'
p361
tp362
F0.01033141560651487
s(S'CTG'
p363
S'T>A'
p364
tp365
F0.009824973665019042
s(S'TCG'
p366
S'C>A'
p367
tp368
F0.0053075115468762665
s(S'ACT'
p369
S'C>T'
p370
tp371
F0.022202414715177053
s(S'TCA'
p372
S'C>A'
p373
tp374
F0.00935904707884288
s(S'ATA'
p375
S'T>C'
p376
tp377
F0.00974394295437971
s(S'CTT'
p378
S'T>A'
p379
tp380
F0.006239364719228588
s(S'CCA'
p381
S'C>A'
p382
tp383
F0.012883882991653836
s(S'GCT'
p384
S'C>T'
p385
tp386
F0.024592820679037355
s(S'ACC'
p387
S'C>G'
p388
tp389
F0.0041123085649461145
s(S'ATT'
p390
S'T>G'
p391
tp392
F0.00020257677659833077
s(S'ATG'
p393
S'T>A'
p394
tp395
F0.007819463576695567
s(S'CTA'
p396
S'T>A'
p397
tp398
F0.0076168868000972365
s(S'TTG'
p399
S'T>C'
p400
tp401
F0.01559841179807147
s(S'TCC'
p402
S'C>T'
p403
tp404
F0.033607487237663075
s(S'ACA'
p405
S'C>T'
p406
tp407
F0.030933473786565108
s(S'GTG'
p408
S'T>C'
p409
tp410
F0.021493395997082894
s(S'ACA'
p411
S'C>G'
p412
tp413
F0.005044161737298436
s(S'TTC'
p414
S'T>G'
p415
tp416
F0.00036463819787699536
s(S'ACT'
p417
S'C>G'
p418
tp419
F0.0019244793776841422
s(S'GTC'
p420
S'T>G'
p421
tp422
F0.001863706344704643
s(S'ATC'
p423
S'T>C'
p424
tp425
F0.012498987116117008
s(S'GTA'
p426
S'T>A'
p427
tp428
F0.011020176646949193
s(S'TTC'
p429
S'T>A'
p430
tp431
F0.00810307106393323
s(S'ACG'
p432
S'C>G'
p433
tp434
F0.00447694676282311
s(S'ATA'
p435
S'T>G'
p436
tp437
F0.0003848958755368285
s(S'ATG'
p438
S'T>G'
p439
tp440
F0.0003443805202171623
s(S'ACC'
p441
S'C>T'
p442
tp443
F0.028887448342921968
s(S'GCA'
p444
S'C>A'
p445
tp446
F0.003180455392593793
s(S'GTT'
p447
S'T>C'
p448
tp449
F0.0159225346406288
s(S'CTC'
p450
S'T>C'
p451
tp452
F0.023255813953488372
s(S'TTA'
p453
S'T>C'
p454
tp455
F0.010635280771412365
s(S'ACA'
p456
S'C>A'
p457
tp458
F0.008609513005429057
s(S'GCG'
p459
S'C>A'
p460
tp461
F0.003362774491532291
s(S'TTG'
p462
S'T>G'
p463
tp464
F0.0006279880074548254
s(S'CTG'
p465
S'T>G'
p466
tp467
F0.0008103071063933231
s(S'TCG'
p468
S'C>G'
p469
tp470
F0.0019649947330038085
s(S'CCC'
p471
S'C>A'
p472
tp473
F0.010189611862896037
s(S'GTG'
p474
S'T>G'
p475
tp476
F0.0016611295681063123
s(S'CCT'
p477
S'C>A'
p478
tp479
F0.012863625313994004
s(S'GTA'
p480
S'T>G'
p481
tp482
F0.0006077303297949923
s(S'TTC'
p483
S'T>C'
p484
tp485
F0.017056964589579452
s(S'ATA'
p486
S'T>A'
p487
tp488
F0.004963131026659104
s(S'GTC'
p489
S'T>C'
p490
tp491
F0.024957458876914352
s(S'CTG'
p492
S'T>C'
p493
tp494
F0.015233773600194473
s(S'ATC'
p495
S'T>G'
p496
tp497
F0.0008103071063933231
s(S'CTT'
p498
S'T>G'
p499
tp500
F0.00016206142127866461
s(S'GCA'
p501
S'C>G'
p502
tp503
F0.0018231909893849769
s(S'GCT'
p504
S'C>G'
p505
tp506
F0.0009115954946924884
s(S'ATT'
p507
S'T>A'
p508
tp509
F0.006219107041568754
s(S'TTT'
p510
S'T>C'
p511
tp512
F0.01270156389271534
s(S'ATG'
p513
S'T>C'
p514
tp515
F0.015173000567214974
s(S'CTA'
p516
S'T>C'
p517
tp518
F0.01448423952678065
s(S'TTG'
p519
S'T>A'
p520
tp521
F0.006786322016044081
s(S'GCC'
p522
S'C>T'
p523
tp524
F0.026881938254598493
s(S'GTT'
p525
S'T>G'
p526
tp527
F0.0010331415606514868
s(S'GCC'
p528
S'C>G'
p529
tp530
F0.0019042217000243091
s(S'TTA'
p531
S'T>G'
p532
tp533
F0.00016206142127866461
s(S'GTG'
p534
S'T>A'
p535
tp536
F0.01606433838424763
s(S'TCC'
p537
S'C>G'
p538
tp539
F0.0019042217000243091
s(S'CCT'
p540
S'C>T'
p541
tp542
F0.034154444534478565
s(S'ACT'
p543
S'C>A'
p544
tp545
F0.007819463576695567
s(S'CCG'
p546
S'C>T'
p547
tp548
F0.02027793533749291
s(S'CCG'
p549
S'C>G'
p550
tp551
F0.003362774491532291
s(S'GTA'
p552
S'T>C'
p553
tp554
F0.017968560084271938
s(S'TCT'
p555
S'C>G'
p556
tp557
F0.0027347864840774655
s(S'GCT'
p558
S'C>A'
p559
tp560
F0.0025524673851389677
s(S'TCA'
p561
S'C>G'
p562
tp563
F0.00474029657240094
s(S'ACG'
p564
S'C>A'
p565
tp566
F0.006360910785187586
s(S'TCA'
p567
S'C>T'
p568
tp569
F0.03784134186856819
s(S'ACG'
p570
S'C>T'
p571
tp572
F0.012681306215055506
s(S'GCA'
p573
S'C>T'
p574
tp575
F0.022222672392836887
s(S'CTT'
p576
S'T>C'
p577
tp578
F0.015193258244874807
s(S'CCA'
p579
S'C>G'
p580
tp581
F0.004517462118142776
s(S'GTT'
p582
S'T>A'
p583
tp584
F0.00875131674904789
ssS'n.vcf'
p585
g2
(g3
tp586
Rp587
(S'CTC'
p588
S'T>A'
p589
tp590
F0.01443603999140996
s(S'GCC'
p591
S'C>A'
p592
tp593
F0.0058459996659428765
s(S'TCC'
p594
S'C>A'
p595
tp596
F0.010713689183707556
s(S'TTT'
p597
S'T>G'
p598
tp599
F0.00014316733875778472
s(S'GCG'
p600
S'C>G'
p601
tp602
F0.0007158366937889236
s(S'CTA'
p603
S'T>G'
p604
tp605
F0.00016702856188408218
s(S'CTC'
p606
S'T>G'
p607
tp608
F0.0006919754706626261
s(S'CCG'
p609
S'C>A'
p610
tp611
F0.005917583335321768
s(S'CCC'
p612
S'C>G'
p613
tp614
F0.0012885060488200626
s(S'CCT'
p615
S'C>G'
p616
tp617
F0.0008112815862941135
s(S'TCT'
p618
S'C>A'
p619
tp620
F0.012002195232527619
s(S'TCT'
p621
S'C>T'
p622
tp623
F0.034622634756257605
s(S'GTC'
p624
S'T>A'
p625
tp626
F0.01734710921281825
s(S'ATC'
p627
S'T>A'
p628
tp629
F0.009639934143024172
s(S'ATT'
p630
S'T>C'
p631
tp632
F0.008232121978572622
s(S'TTT'
p633
S'T>A'
p634
tp635
F0.0049154119640172755
s(S'CCA'
p636
S'C>T'
p637
tp638
F0.046386217757522254
s(S'GCG'
p639
S'C>T'
p640
tp641
F0.01472237466892553
s(S'ACC'
p642
S'C>A'
p643
tp644
F0.008566179102340785
s(S'TTA'
p645
S'T>A'
p646
tp647
F0.004509771170870219
s(S'CCC'
p648
S'C>T'
p649
tp650
F0.02829941062778878
s(S'TCG'
p651
S'C>T'
p652
tp653
F0.010355770836813095
s(S'CTG'
p654
S'T>A'
p655
tp656
F0.00918657090362452
s(S'TCG'
p657
S'C>A'
p658
tp659
F0.0041757140471020545
s(S'ACT'
p660
S'C>T'
p661
tp662
F0.02445775370445489
s(S'TCA'
p663
S'C>A'
p664
tp665
F0.008470734209835596
s(S'ATA'
p666
S'T>C'
p667
tp668
F0.008542317879214488
s(S'CTT'
p669
S'T>A'
p670
tp671
F0.0063232241284688255
s(S'CCA'
p672
S'C>A'
p673
tp674
F0.013195256388842492
s(S'GCT'
p675
S'C>T'
p676
tp677
F0.024672504712591567
s(S'ACC'
p678
S'C>G'
p679
tp680
F0.002195232527619366
s(S'ATT'
p681
S'T>G'
p682
tp683
F0.00019088978501037964
s(S'ATG'
p684
S'T>A'
p685
tp686
F0.008542317879214488
s(S'CTA'
p687
S'T>A'
p688
tp689
F0.009902407597413444
s(S'TTG'
p690
S'T>C'
p691
tp692
F0.013338423727600277
s(S'TCC'
p693
S'C>T'
p694
tp695
F0.036579255052613995
s(S'ACA'
p696
S'C>T'
p697
tp698
F0.033119377699300866
s(S'GTG'
p699
S'T>C'
p700
tp701
F0.02049679066548951
s(S'ACA'
p702
S'C>G'
p703
tp704
F0.0037462120308287003
s(S'TTC'
p705
S'T>G'
p706
tp707
F0.00047722446252594907
s(S'ACT'
p708
S'C>G'
p709
tp710
F0.0008112815862941135
s(S'GTC'
p711
S'T>G'
p712
tp713
F0.0016464243957145244
s(S'ATC'
p714
S'T>C'
p715
tp716
F0.01228852991004319
s(S'GTA'
p717
S'T>A'
p718
tp719
F0.012646448256937651
s(S'TTC'
p720
S'T>A'
p721
tp722
F0.008279844424825216
s(S'ACG'
p723
S'C>G'
p724
tp725
F0.002958791667660884
s(S'ATA'
p726
S'T>G'
p727
tp728
F0.00033405712376816435
s(S'ATG'
p729
S'T>G'
p730
tp731
F0.0005010856856522465
s(S'ACC'
p732
S'C>T'
p733
tp734
F0.031258202295449664
s(S'GCA'
p735
S'C>A'
p736
tp737
F0.002958791667660884
s(S'GTT'
p738
S'T>C'
p739
tp740
F0.01632107661838746
s(S'CTC'
p741
S'T>C'
p742
tp743
F0.022906774201245556
s(S'TTA'
p744
S'T>C'
p745
tp746
F0.009711517812403064
s(S'ACA'
p747
S'C>A'
p748
tp749
F0.0068004485909947746
s(S'GCG'
p750
S'C>A'
p751
tp752
F0.0030780977832923716
s(S'TTG'
p753
S'T>G'
p754
tp755
F0.0008590040325467083
s(S'CTG'
p756
S'T>G'
p757
tp758
F0.00040564079314705674
s(S'TCG'
p759
S'C>G'
p760
tp761
F0.00131236727194636
s(S'CCC'
p762
S'C>A'
p763
tp764
F0.00992626882053974
s(S'GTG'
p765
S'T>G'
p766
tp767
F0.0014078121644515499
s(S'CCT'
p768
S'C>A'
p769
tp770
F0.011954472786275025
s(S'GTA'
p771
S'T>G'
p772
tp773
F0.0008351428094204109
s(S'TTC'
p774
S'T>C'
p775
tp776
F0.017013052089050084
s(S'ATA'
p777
S'T>A'
p778
tp779
F0.005225607864659142
s(S'GTC'
p780
S'T>C'
p781
tp782
F0.026581402562695363
s(S'CTG'
p783
S'T>C'
p784
tp785
F0.014984848123314801
s(S'ATC'
p786
S'T>G'
p787
tp788
F0.00026247345438927197
s(S'CTT'
p789
S'T>G'
p790
tp791
F0.00014316733875778472
s(S'GCA'
p792
S'C>G'
p793
tp794
F0.001097616263809683
s(S'GCT'
p795
S'C>G'
p796
tp797
F0.0006203918012837338
s(S'ATT'
p798
S'T>A'
p799
tp800
F0.0065618363597318
s(S'TTT'
p801
S'T>C'
p802
tp803
F0.01171586055501205
s(S'ATG'
p804
S'T>C'
p805
tp806
F0.011882889116896132
s(S'CTA'
p807
S'T>C'
p808
tp809
F0.01414970531389439
s(S'TTG'
p810
S'T>A'
p811
tp812
F0.006919754706626262
s(S'GCC'
p813
S'C>T'
p814
tp815
F0.029635639122861438
s(S'GTT'
p816
S'T>G'
p817
tp818
F0.001622563172588227
s(S'GCC'
p819
S'C>G'
p820
tp821
F0.0018134529575986064
s(S'TTA'
p822
S'T>G'
p823
tp824
F0.00014316733875778472
s(S'GTG'
p825
S'T>A'
p826
tp827
F0.01698919086592379
s(S'TCC'
p828
S'C>G'
p829
tp830
F0.0020759264119878783
s(S'CCT'
p831
S'C>T'
p832
tp833
F0.038106373332697036
s(S'ACT'
p834
S'C>A'
p835
tp836
F0.006514113913479205
s(S'CCG'
p837
S'C>T'
p838
tp839
F0.02118876613615214
s(S'CCG'
p840
S'C>G'
p841
tp842
F0.0027679018826505045
s(S'GTA'
p843
S'T>C'
p844
tp845
F0.016750578634660812
s(S'TCT'
p846
S'C>G'
p847
tp848
F0.00131236727194636
s(S'GCT'
p849
S'C>A'
p850
tp851
F0.0015509795032093345
s(S'TCA'
p852
S'C>G'
p853
tp854
F0.0036030446920709155
s(S'ACG'
p855
S'C>A'
p856
tp857
F0.005177885418406547
s(S'TCA'
p858
S'C>T'
p859
tp860
F0.04264000572669355
s(S'ACG'
p861
S'C>T'
p862
tp863
F0.011668138108759454
s(S'GCA'
p864
S'C>T'
p865
tp866
F0.024982700613233433
s(S'CTT'
p867
S'T>C'
p868
tp869
F0.01350545228948436
s(S'CCA'
p870
S'C>G'
p871
tp872
F0.0030542365601660742
s(S'GTT'
p873
S'T>A'
p874
tp875
F0.01059438306807607
ssS'u.vcf'
p876
g2
(g3
tp877
Rp878
(S'CTC'
p879
S'T>A'
p880
tp881
F0.01542144527335486
s(S'GCC'
p882
S'C>A'
p883
tp884
F0.0060683665516089525
s(S'TCC'
p885
S'C>A'
p886
tp887
F0.010633559737223026
s(S'TTT'
p888
S'T>G'
p889
tp890
F5.5673087629439926e-05
s(S'GCG'
p891
S'C>G'
p892
tp893
F0.0006680770515532791
s(S'CTA'
p894
S'T>G'
p895
tp896
F0.00033403852577663955
s(S'CTC'
p897
S'T>G'
p898
tp899
F0.0005288943324796793
s(S'CCG'
p900
S'C>A'
p901
tp902
F0.006235385814497272
s(S'CCC'
p903
S'C>G'
p904
tp905
F0.0011691348402182386
s(S'CCT'
p906
S'C>G'
p907
tp908
F0.0017815388041420776
s(S'TCT'
p909
S'C>A'
p910
tp911
F0.013667743013027502
s(S'TCT'
p912
S'C>T'
p913
tp914
F0.033737891103440595
s(S'GTC'
p915
S'T>A'
p916
tp917
F0.017843224585235497
s(S'ATC'
p918
S'T>A'
p919
tp920
F0.009854136510410868
s(S'ATT'
p921
S'T>C'
p922
tp923
F0.010076828860928626
s(S'TTT'
p924
S'T>A'
p925
tp926
F0.004286827747466875
s(S'CCA'
p927
S'C>T'
p928
tp929
F0.04618082618862042
s(S'GCG'
p930
S'C>T'
p931
tp932
F0.012248079278476784
s(S'ACC'
p933
S'C>A'
p934
tp935
F0.009325242177931188
s(S'TTA'
p936
S'T>A'
p937
tp938
F0.004064135396949115
s(S'CCC'
p939
S'C>T'
p940
tp941
F0.027168466763166685
s(S'TCG'
p942
S'C>T'
p943
tp944
F0.009714953791337268
s(S'CTG'
p945
S'T>A'
p946
tp947
F0.008991203652154549
s(S'TCG'
p948
S'C>A'
p949
tp950
F0.004537356641799354
s(S'ACT'
p951
S'C>T'
p952
tp953
F0.02329918717292061
s(S'TCA'
p954
S'C>A'
p955
tp956
F0.008156107337712949
s(S'ATA'
p957
S'T>C'
p958
tp959
F0.009603607616078388
s(S'CTT'
p960
S'T>A'
p961
tp962
F0.00829529005678655
s(S'CCA'
p963
S'C>A'
p964
tp965
F0.012776973610956463
s(S'GCT'
p966
S'C>T'
p967
tp968
F0.024885870170359647
s(S'ACC'
p969
S'C>G'
p970
tp971
F0.0035352410644694356
s(S'ATT'
p972
S'T>G'
p973
tp974
F0.0002226923505177597
s(S'ATG'
p975
S'T>A'
p976
tp977
F0.009241732546487028
s(S'CTA'
p978
S'T>A'
p979
tp980
F0.009074713283598709
s(S'TTG'
p981
S'T>C'
p982
tp983
F0.012860483242400623
s(S'TCC'
p984
S'C>T'
p985
tp986
F0.03448947778643804
s(S'ACA'
p987
S'C>T'
p988
tp989
F0.03237390045651932
s(S'GTG'
p990
S'T>C'
p991
tp992
F0.02285380247188509
s(S'ACA'
p993
S'C>G'
p994
tp995
F0.0034238948892105557
s(S'TTC'
p996
S'T>G'
p997
tp998
F0.0003897116134060795
s(S'ACT'
p999
S'C>G'
p1000
tp1001
F0.0018093753479567977
s(S'GTC'
p1002
S'T>G'
p1003
tp1004
F0.001503173365994878
s(S'ATC'
p1005
S'T>C'
p1006
tp1007
F0.012275915822291504
s(S'GTA'
p1008
S'T>A'
p1009
tp1010
F0.011969713840329585
s(S'TTC'
p1011
S'T>A'
p1012
tp1013
F0.008685001670192628
s(S'ACG'
p1014
S'C>G'
p1015
tp1016
F0.0028393274691014365
s(S'ATA'
p1017
S'T>G'
p1018
tp1019
F0.0004175481572207995
s(S'ATG'
p1020
S'T>G'
p1021
tp1022
F0.0004453847010355194
s(S'ACC'
p1023
S'C>T'
p1024
tp1025
F0.029367553724529562
s(S'GCA'
p1026
S'C>A'
p1027
tp1028
F0.0027836543814719963
s(S'GTT'
p1029
S'T>C'
p1030
tp1031
F0.01642356085068478
s(S'CTC'
p1032
S'T>C'
p1033
tp1034
F0.024078610399732768
s(S'TTA'
p1035
S'T>C'
p1036
tp1037
F0.010327357755261106
s(S'ACA'
p1038
S'C>A'
p1039
tp1040
F0.007153991760383031
s(S'GCG'
p1041
S'C>A'
p1042
tp1043
F0.003062019819619196
s(S'TTG'
p1044
S'T>G'
p1045
tp1046
F0.0005010577886649594
s(S'CTG'
p1047
S'T>G'
p1048
tp1049
F0.000835096314441599
s(S'TCG'
p1050
S'C>G'
p1051
tp1052
F0.0017258657165126379
s(S'CCC'
p1053
S'C>A'
p1054
tp1055
F0.008852020933080948
s(S'GTG'
p1056
S'T>G'
p1057
tp1058
F0.001503173365994878
s(S'CCT'
p1059
S'C>A'
p1060
tp1061
F0.011106780982073267
s(S'GTA'
p1062
S'T>G'
p1063
tp1064
F0.000751586682997439
s(S'TTC'
p1065
S'T>C'
p1066
tp1067
F0.01764836877853246
s(S'ATA'
p1068
S'T>A'
p1069
tp1070
F0.006012693463979512
s(S'GTC'
p1071
S'T>C'
p1072
tp1073
F0.026723082062131167
s(S'CTG'
p1074
S'T>C'
p1075
tp1076
F0.0150595702037635
s(S'ATC'
p1077
S'T>G'
p1078
tp1079
F0.0004732212448502394
s(S'CTT'
p1080
S'T>G'
p1081
tp1082
F0.00011134617525887985
s(S'GCA'
p1083
S'C>G'
p1084
tp1085
F0.0009186059458857588
s(S'GCT'
p1086
S'C>G'
p1087
tp1088
F0.000779423226812159
s(S'ATT'
p1089
S'T>A'
p1090
tp1091
F0.0057900011134617525
s(S'TTT'
p1092
S'T>C'
p1093
tp1094
F0.011914040752700144
s(S'ATG'
p1095
S'T>C'
p1096
tp1097
F0.0150595702037635
s(S'CTA'
p1098
S'T>C'
p1099
tp1100
F0.01597817614964926
s(S'TTG'
p1101
S'T>A'
p1102
tp1103
F0.00796125153100991
s(S'GCC'
p1104
S'C>T'
p1105
tp1106
F0.027446832201313887
s(S'GTT'
p1107
S'T>G'
p1108
tp1109
F0.0017537022603273578
s(S'GCC'
p1110
S'C>G'
p1111
tp1112
F0.0021155773299187173
s(S'TTA'
p1113
S'T>G'
p1114
tp1115
F5.5673087629439926e-05
s(S'GTG'
p1116
S'T>A'
p1117
tp1118
F0.019262888319786214
s(S'TCC'
p1119
S'C>G'
p1120
tp1121
F0.002449615855695357
s(S'CCT'
p1122
S'C>T'
p1123
tp1124
F0.032958467876628435
s(S'ACT'
p1125
S'C>A'
p1126
tp1127
F0.005734328025832312
s(S'CCG'
p1128
S'C>T'
p1129
tp1130
F0.020710388598151653
s(S'CCG'
p1131
S'C>G'
p1132
tp1133
F0.003062019819619196
s(S'GTA'
p1134
S'T>C'
p1135
tp1136
F0.01653490702594366
s(S'TCT'
p1137
S'C>G'
p1138
tp1139
F0.0018928849794009575
s(S'GCT'
p1140
S'C>A'
p1141
tp1142
F0.002366106224251197
s(S'TCA'
p1143
S'C>G'
p1144
tp1145
F0.0035630776082841552
s(S'ACG'
p1146
S'C>A'
p1147
tp1148
F0.005845674201091193
s(S'TCA'
p1149
S'C>T'
p1150
tp1151
F0.03913818060349627
s(S'ACG'
p1152
S'C>T'
p1153
tp1154
F0.011468656051664625
s(S'GCA'
p1155
S'C>T'
p1156
tp1157
F0.02316000445384701
s(S'CTT'
p1158
S'T>C'
p1159
tp1160
F0.013751252644471662
s(S'CCA'
p1161
S'C>G'
p1162
tp1163
F0.003089856363433916
s(S'GTT'
p1164
S'T>A'
p1165
tp1166
F0.010717069368667186
ssS'r.vcf'
p1167
g2
(g3
tp1168
Rp1169
(S'CTC'
p1170
S'T>A'
p1171
tp1172
F0.014398422090729782
s(S'GCC'
p1173
S'C>A'
p1174
tp1175
F0.004649196956889264
s(S'TCC'
p1176
S'C>A'
p1177
tp1178
F0.011834319526627219
s(S'TTT'
p1179
S'T>G'
p1180
tp1181
F0.0003663003663003663
s(S'GCG'
p1182
S'C>G'
p1183
tp1184
F0.0009861932938856016
s(S'CTA'
p1185
S'T>G'
p1186
tp1187
F0.00022541561003099465
s(S'GCC'
p1188
S'C>G'
p1189
tp1190
F0.0023105100028176953
s(S'CCG'
p1191
S'C>A'
p1192
tp1193
F0.006086221470836856
s(S'CCC'
p1194
S'C>G'
p1195
tp1196
F0.0013806706114398422
s(S'CCT'
p1197
S'C>G'
p1198
tp1199
F0.0018315018315018315
s(S'TCT'
p1200
S'C>A'
p1201
tp1202
F0.014003944773175542
s(S'TCT'
p1203
S'C>T'
p1204
tp1205
F0.035221189067342916
s(S'GTC'
p1206
S'T>A'
p1207
tp1208
F0.01749788672865596
s(S'ATC'
p1209
S'T>A'
p1210
tp1211
F0.009439278670047901
s(S'ATT'
p1212
S'T>C'
p1213
tp1214
F0.009467455621301775
s(S'TTT'
p1215
S'T>A'
p1216
tp1217
F0.005015497323189631
s(S'CCA'
p1218
S'C>T'
p1219
tp1220
F0.046153846153846156
s(S'GCG'
p1221
S'C>T'
p1222
tp1223
F0.014003944773175542
s(S'ACC'
p1224
S'C>A'
p1225
tp1226
F0.008312200619892927
s(S'TTA'
p1227
S'T>A'
p1228
tp1229
F0.004198365736827275
s(S'CCC'
p1230
S'C>T'
p1231
tp1232
F0.03082558467173852
s(S'TCG'
p1233
S'C>T'
p1234
tp1235
F0.009833755987602142
s(S'CTG'
p1236
S'T>A'
p1237
tp1238
F0.00839673147365455
s(S'TCG'
p1239
S'C>A'
p1240
tp1241
F0.004818258664412511
s(S'ACT'
p1242
S'C>T'
p1243
tp1244
F0.02285150746689208
s(S'TCA'
p1245
S'C>A'
p1246
tp1247
F0.008819385742462665
s(S'ATA'
p1248
S'T>C'
p1249
tp1250
F0.009467455621301775
s(S'CTT'
p1251
S'T>A'
p1252
tp1253
F0.00650887573964497
s(S'CCA'
p1254
S'C>A'
p1255
tp1256
F0.011834319526627219
s(S'GCT'
p1257
S'C>T'
p1258
tp1259
F0.02440123978585517
s(S'ACC'
p1260
S'C>G'
p1261
tp1262
F0.002986756832910679
s(S'ATT'
p1263
S'T>G'
p1264
tp1265
F0.00014088475626937165
s(S'ATG'
p1266
S'T>A'
p1267
tp1268
F0.007213299520991829
s(S'CTA'
p1269
S'T>A'
p1270
tp1271
F0.008819385742462665
s(S'TTG'
p1272
S'T>C'
p1273
tp1274
F0.01301775147928994
s(S'TCC'
p1275
S'C>T'
p1276
tp1277
F0.038433361510284585
s(S'ACA'
p1278
S'C>T'
p1279
tp1280
F0.03434770357847281
s(S'GTG'
p1281
S'T>C'
p1282
tp1283
F0.02062552831783601
s(S'ACA'
p1284
S'C>G'
p1285
tp1286
F0.0034375880529726685
s(S'TTC'
p1287
S'T>G'
p1288
tp1289
F0.00011270780501549733
s(S'ACT'
p1290
S'C>G'
p1291
tp1292
F0.0016624401239785855
s(S'GTC'
p1293
S'T>G'
p1294
tp1295
F0.0016624401239785855
s(S'ATC'
p1296
S'T>C'
p1297
tp1298
F0.011862496477881092
s(S'GTA'
p1299
S'T>A'
p1300
tp1301
F0.011693434770357848
s(S'TTC'
p1302
S'T>A'
p1303
tp1304
F0.007974077204846436
s(S'ACG'
p1305
S'C>G'
p1306
tp1307
F0.00357847280924204
s(S'ATA'
p1308
S'T>G'
p1309
tp1310
F0.000591715976331361
s(S'ATG'
p1311
S'T>G'
p1312
tp1313
F0.0002817695125387433
s(S'ACC'
p1314
S'C>T'
p1315
tp1316
F0.030487461256692026
s(S'GCA'
p1317
S'C>A'
p1318
tp1319
F0.002395040856579318
s(S'GTT'
p1320
S'T>C'
p1321
tp1322
F0.015018315018315019
s(S'CTC'
p1323
S'T>C'
p1324
tp1325
F0.022795153564384333
s(S'TTA'
p1326
S'T>C'
p1327
tp1328
F0.010228233305156383
s(S'ACA'
p1329
S'C>A'
p1330
tp1331
F0.0069315300084530854
s(S'GCG'
p1332
S'C>A'
p1333
tp1334
F0.0032685263454494224
s(S'TTG'
p1335
S'T>G'
p1336
tp1337
F0.000591715976331361
s(S'CTG'
p1338
S'T>G'
p1339
tp1340
F0.00030994646379261766
s(S'TCG'
p1341
S'C>G'
p1342
tp1343
F0.0014933784164553395
s(S'CCC'
p1344
S'C>A'
p1345
tp1346
F0.008537616229923922
s(S'GTG'
p1347
S'T>G'
p1348
tp1349
F0.0010707241476472246
s(S'CCT'
p1350
S'C>A'
p1351
tp1352
F0.011101718794026487
s(S'GTA'
p1353
S'T>G'
p1354
tp1355
F0.0004508312200619893
s(S'TTC'
p1356
S'T>C'
p1357
tp1358
F0.01724429416737109
s(S'ATA'
p1359
S'T>A'
p1360
tp1361
F0.0053254437869822485
s(S'GTC'
p1362
S'T>C'
p1363
tp1364
F0.026768103691180614
s(S'CTG'
p1365
S'T>C'
p1366
tp1367
F0.015215553677092139
s(S'ATC'
p1368
S'T>G'
p1369
tp1370
F0.0003944773175542406
s(S'CTT'
p1371
S'T>G'
p1372
tp1373
F0.000169061707523246
s(S'GCA'
p1374
S'C>G'
p1375
tp1376
F0.0016906170752324597
s(S'GCT'
p1377
S'C>G'
p1378
tp1379
F0.00030994646379261766
s(S'ATT'
p1380
S'T>A'
p1381
tp1382
F0.006255283178360101
s(S'TTT'
p1383
S'T>C'
p1384
tp1385
F0.011468019160326852
s(S'ATG'
p1386
S'T>C'
p1387
tp1388
F0.013355874894336433
s(S'CTA'
p1389
S'T>C'
p1390
tp1391
F0.014990138067061143
s(S'TTG'
p1392
S'T>A'
p1393
tp1394
F0.007748661594815441
s(S'GCC'
p1395
S'C>T'
p1396
tp1397
F0.02967032967032967
s(S'GTT'
p1398
S'T>G'
p1399
tp1400
F0.0013243167089320934
s(S'CTC'
p1401
S'T>G'
p1402
tp1403
F0.0006198929275852353
s(S'TTA'
p1404
S'T>G'
p1405
tp1406
F0.00022541561003099465
s(S'GTG'
p1407
S'T>A'
p1408
tp1409
F0.015497323189630883
s(S'TCC'
p1410
S'C>G'
p1411
tp1412
F0.0013806706114398422
s(S'CCT'
p1413
S'C>T'
p1414
tp1415
F0.03555931248238941
s(S'ACT'
p1416
S'C>A'
p1417
tp1418
F0.005917159763313609
s(S'CCG'
p1419
S'C>T'
p1420
tp1421
F0.021527190757959988
s(S'CCG'
p1422
S'C>G'
p1423
tp1424
F0.0022823330515638206
s(S'GTA'
p1425
S'T>C'
p1426
tp1427
F0.016624401239785855
s(S'TCT'
p1428
S'C>G'
p1429
tp1430
F0.0018033248802479572
s(S'GCT'
p1431
S'C>A'
p1432
tp1433
F0.0020287404902789518
s(S'TCA'
p1434
S'C>G'
p1435
tp1436
F0.0039447731755424065
s(S'ACG'
p1437
S'C>A'
p1438
tp1439
F0.006198929275852353
s(S'TCA'
p1440
S'C>T'
p1441
tp1442
F0.042011834319526625
s(S'ACG'
p1443
S'C>T'
p1444
tp1445
F0.012707805015497323
s(S'GCA'
p1446
S'C>T'
p1447
tp1448
F0.02538743307974077
s(S'CTT'
p1449
S'T>C'
p1450
tp1451
F0.01366582135812905
s(S'CCA'
p1452
S'C>G'
p1453
tp1454
F0.00357847280924204
s(S'GTT'
p1455
S'T>A'
p1456
tp1457
F0.00884756269371654
ssS't.vcf'
p1458
g2
(g3
tp1459
Rp1460
(S'CTC'
p1461
S'T>A'
p1462
tp1463
F0.013532693005908175
s(S'GCC'
p1464
S'C>A'
p1465
tp1466
F0.006667326798032809
s(S'TCC'
p1467
S'C>A'
p1468
tp1469
F0.012476482820081196
s(S'TTT'
p1470
S'T>G'
p1471
tp1472
F0.00019803940984255866
s(S'GCG'
p1473
S'C>G'
p1474
tp1475
F0.0013202627322837245
s(S'CTA'
p1476
S'T>G'
p1477
tp1478
F0.00013202627322837245
s(S'GCC'
p1479
S'C>G'
p1480
tp1481
F0.0028055583061029144
s(S'CCG'
p1482
S'C>A'
p1483
tp1484
F0.006766346502954088
s(S'CCC'
p1485
S'C>G'
p1486
tp1487
F0.0013202627322837245
s(S'CCT'
p1488
S'C>G'
p1489
tp1490
F0.0008581707759844209
s(S'TCT'
p1491
S'C>A'
p1492
tp1493
F0.01326864045945143
s(S'TCT'
p1494
S'C>T'
p1495
tp1496
F0.031983364689573225
s(S'GTC'
p1497
S'T>A'
p1498
tp1499
F0.017856553454137374
s(S'ATC'
p1500
S'T>A'
p1501
tp1502
F0.010033996765356306
s(S'ATT'
p1503
S'T>C'
p1504
tp1505
F0.008449681486615837
s(S'TTT'
p1506
S'T>A'
p1507
tp1508
F0.00445588672145757
s(S'CCA'
p1509
S'C>T'
p1510
tp1511
F0.04472390005611117
s(S'GCG'
p1512
S'C>T'
p1513
tp1514
F0.014027791530514573
s(S'ACC'
p1515
S'C>A'
p1516
tp1517
F0.00976994421889956
s(S'TTA'
p1518
S'T>A'
p1519
tp1520
F0.003597715945473149
s(S'CCC'
p1521
S'C>T'
p1522
tp1523
F0.026801333465359605
s(S'TCG'
p1524
S'C>T'
p1525
tp1526
F0.01049608872165561
s(S'CTG'
p1527
S'T>A'
p1528
tp1529
F0.00881275373799386
s(S'TCG'
p1530
S'C>A'
p1531
tp1532
F0.00541307720236327
s(S'ACT'
p1533
S'C>T'
p1534
tp1535
F0.02280753870020134
s(S'TCA'
p1536
S'C>A'
p1537
tp1538
F0.008416674918308744
s(S'ATA'
p1539
S'T>C'
p1540
tp1541
F0.009505891672442816
s(S'CTT'
p1542
S'T>A'
p1543
tp1544
F0.006700333366339901
s(S'CCA'
p1545
S'C>A'
p1546
tp1547
F0.014357857213585503
s(S'GCT'
p1548
S'C>T'
p1549
tp1550
F0.02544806416476879
s(S'ACC'
p1551
S'C>G'
p1552
tp1553
F0.003630722513780242
s(S'ATT'
p1554
S'T>G'
p1555
tp1556
F6.601313661418622e-05
s(S'ATG'
p1557
S'T>A'
p1558
tp1559
F0.007756543552166881
s(S'CTA'
p1560
S'T>A'
p1561
tp1562
F0.009835957355513748
s(S'TTG'
p1563
S'T>C'
p1564
tp1565
F0.014192824372050038
s(S'TCC'
p1566
S'C>T'
p1567
tp1568
F0.03531702808858963
s(S'ACA'
p1569
S'C>T'
p1570
tp1571
F0.03277552232894346
s(S'GTG'
p1572
S'T>C'
p1573
tp1574
F0.022642505858665875
s(S'ACA'
p1575
S'C>G'
p1576
tp1577
F0.003465689672244777
s(S'TTC'
p1578
S'T>G'
p1579
tp1580
F0.000594118229527676
s(S'ACT'
p1581
S'C>G'
p1582
tp1583
F0.0022114400765752386
s(S'GTC'
p1584
S'T>G'
p1585
tp1586
F0.0017163415519688419
s(S'ATC'
p1587
S'T>C'
p1588
tp1589
F0.012674522229923754
s(S'GTA'
p1590
S'T>A'
p1591
tp1592
F0.011486285770868403
s(S'TTC'
p1593
S'T>A'
p1594
tp1595
F0.008944780011222233
s(S'ACG'
p1596
S'C>G'
p1597
tp1598
F0.003267650262402218
s(S'ATA'
p1599
S'T>G'
p1600
tp1601
F0.0002640525464567449
s(S'ATG'
p1602
S'T>G'
p1603
tp1604
F0.0003960788196851173
s(S'ACC'
p1605
S'C>T'
p1606
tp1607
F0.02884774070039938
s(S'GCA'
p1608
S'C>A'
p1609
tp1610
F0.0031026174208667527
s(S'GTT'
p1611
S'T>C'
p1612
tp1613
F0.015348054262798297
s(S'CTC'
p1614
S'T>C'
p1615
tp1616
F0.02336865036142192
s(S'TTA'
p1617
S'T>C'
p1618
tp1619
F0.010232036175198864
s(S'ACA'
p1620
S'C>A'
p1621
tp1622
F0.007195431890946298
s(S'GCG'
p1623
S'C>A'
p1624
tp1625
F0.0026735320328745422
s(S'TTG'
p1626
S'T>G'
p1627
tp1628
F0.0007921576393702346
s(S'CTG'
p1629
S'T>G'
p1630
tp1631
F0.00042908538799221047
s(S'TCG'
p1632
S'C>G'
p1633
tp1634
F0.0013532693005908175
s(S'CCC'
p1635
S'C>A'
p1636
tp1637
F0.009835957355513748
s(S'GTG'
p1638
S'T>G'
p1639
tp1640
F0.001188236459055352
s(S'CCT'
p1641
S'C>A'
p1642
tp1643
F0.010859160973033634
s(S'GTA'
p1644
S'T>G'
p1645
tp1646
F0.0003960788196851173
s(S'TTC'
p1647
S'T>C'
p1648
tp1649
F0.01825263227382249
s(S'ATA'
p1650
S'T>A'
p1651
tp1652
F0.004917978677756874
s(S'GTC'
p1653
S'T>C'
p1654
tp1655
F0.026471267782288675
s(S'CTG'
p1656
S'T>C'
p1657
tp1658
F0.016041192197247253
s(S'ATC'
p1659
S'T>G'
p1660
tp1661
F6.601313661418622e-05
s(S'CTT'
p1662
S'T>G'
p1663
tp1664
F0.00013202627322837245
s(S'GCA'
p1665
S'C>G'
p1666
tp1667
F0.0016173218470475624
s(S'GCT'
p1668
S'C>G'
p1669
tp1670
F0.00046209195629930356
s(S'ATT'
p1671
S'T>A'
p1672
tp1673
F0.006700333366339901
s(S'TTT'
p1674
S'T>C'
p1675
tp1676
F0.012080404000396078
s(S'ATG'
p1677
S'T>C'
p1678
tp1679
F0.013499686437601082
s(S'CTA'
p1680
S'T>C'
p1681
tp1682
F0.014786942601577714
s(S'TTG'
p1683
S'T>A'
p1684
tp1685
F0.007954582962009439
s(S'GCC'
p1686
S'C>T'
p1687
tp1688
F0.028682707858863912
s(S'GTT'
p1689
S'T>G'
p1690
tp1691
F0.0013532693005908175
s(S'CTC'
p1692
S'T>G'
p1693
tp1694
F0.0004950985246063966
s(S'TTA'
p1695
S'T>G'
p1696
tp1697
F0.00013202627322837245
s(S'GTG'
p1698
S'T>A'
p1699
tp1700
F0.01643727101693237
s(S'TCC'
p1701
S'C>G'
p1702
tp1703
F0.00244248605472489
s(S'CCT'
p1704
S'C>T'
p1705
tp1706
F0.03455787701752649
s(S'ACT'
p1707
S'C>A'
p1708
tp1709
F0.006799353071261181
s(S'CCG'
p1710
S'C>T'
p1711
tp1712
F0.021487275967917614
s(S'CCG'
p1713
S'C>G'
p1714
tp1715
F0.0028055583061029144
s(S'GTA'
p1716
S'T>C'
p1717
tp1718
F0.016668316995082023
s(S'TCT'
p1719
S'C>G'
p1720
tp1721
F0.001749348120275935
s(S'GCT'
p1722
S'C>A'
p1723
tp1724
F0.0023434663498036108
s(S'TCA'
p1725
S'C>G'
p1726
tp1727
F0.0037297422187015216
s(S'ACG'
p1728
S'C>A'
p1729
tp1730
F0.0061062151368122255
s(S'TCA'
p1731
S'C>T'
p1732
tp1733
F0.040466052744496155
s(S'ACG'
p1734
S'C>T'
p1735
tp1736
F0.013235633891144337
s(S'GCA'
p1737
S'C>T'
p1738
tp1739
F0.022774532131894246
s(S'CTT'
p1740
S'T>C'
p1741
tp1742
F0.012113410568703171
s(S'CCA'
p1743
S'C>G'
p1744
tp1745
F0.003564709377166056
s(S'GTT'
p1746
S'T>A'
p1747
tp1748
F0.009208832557678978
ssS'i.vcf'
p1749
g2
(g3
tp1750
Rp1751
(S'CTC'
p1752
S'T>A'
p1753
tp1754
F0.012613604248166713
s(S'GCC'
p1755
S'C>A'
p1756
tp1757
F0.00774963185530054
s(S'TCC'
p1758
S'C>A'
p1759
tp1760
F0.016837971708637642
s(S'TTT'
p1761
S'T>G'
p1762
tp1763
F0.00016361986642669086
s(S'GCG'
p1764
S'C>G'
p1765
tp1766
F0.0013238334647250442
s(S'CTA'
p1767
S'T>G'
p1768
tp1769
F0.0002082434663612429
s(S'CTC'
p1770
S'T>G'
p1771
tp1772
F0.0006098558657722114
s(S'CCG'
p1773
S'C>A'
p1774
tp1775
F0.008731351053860685
s(S'CCC'
p1776
S'C>G'
p1777
tp1778
F0.0022163054634160855
s(S'CCT'
p1779
S'C>G'
p1780
tp1781
F0.003168275595353196
s(S'TCT'
p1782
S'C>A'
p1783
tp1784
F0.019069151705365245
s(S'TCT'
p1785
S'C>T'
p1786
tp1787
F0.028335985958440554
s(S'GTC'
p1788
S'T>A'
p1789
tp1790
F0.013684570646595963
s(S'ATC'
p1791
S'T>A'
p1792
tp1793
F0.007898377188415713
s(S'ATT'
p1794
S'T>C'
p1795
tp1796
F0.01100715465052284
s(S'TTT'
p1797
S'T>A'
p1798
tp1799
F0.004521858126701275
s(S'CCA'
p1800
S'C>T'
p1801
tp1802
F0.03937288967558643
s(S'GCG'
p1803
S'C>T'
p1804
tp1805
F0.012435109848428506
s(S'ACC'
p1806
S'C>A'
p1807
tp1808
F0.013342456380431064
s(S'TTA'
p1809
S'T>A'
p1810
tp1811
F0.003555013461452647
s(S'CCC'
p1812
S'C>T'
p1813
tp1814
F0.024528105430692112
s(S'TCG'
p1815
S'C>T'
p1816
tp1817
F0.010456796917996699
s(S'CTG'
p1818
S'T>A'
p1819
tp1820
F0.008240491454580612
s(S'TCG'
p1821
S'C>A'
p1822
tp1823
F0.0065894182570021866
s(S'ACT'
p1824
S'C>T'
p1825
tp1826
F0.02162757143494623
s(S'TCA'
p1827
S'C>A'
p1828
tp1829
F0.011542637849737464
s(S'ATA'
p1830
S'T>C'
p1831
tp1832
F0.009742819319043866
s(S'CTT'
p1833
S'T>A'
p1834
tp1835
F0.006172931324279701
s(S'CCA'
p1836
S'C>A'
p1837
tp1838
F0.013833315979711137
s(S'GCT'
p1839
S'C>T'
p1840
tp1841
F0.02067560130300912
s(S'ACC'
p1842
S'C>G'
p1843
tp1844
F0.00499784319266983
s(S'ATT'
p1845
S'T>G'
p1846
tp1847
F0.00034211426616489907
s(S'ATG'
p1848
S'T>A'
p1849
tp1850
F0.006931532523167086
s(S'CTA'
p1851
S'T>A'
p1852
tp1853
F0.008091746121465439
s(S'TTG'
p1854
S'T>C'
p1855
tp1856
F0.0159454997099466
s(S'TCC'
p1857
S'C>T'
p1858
tp1859
F0.03110264915438278
s(S'ACA'
p1860
S'C>T'
p1861
tp1862
F0.02835086049175207
s(S'GTG'
p1863
S'T>C'
p1864
tp1865
F0.023338142765770724
s(S'ACA'
p1866
S'C>G'
p1867
tp1868
F0.006262178524148804
s(S'TTC'
p1869
S'T>G'
p1870
tp1871
F0.0006544794657067634
s(S'ACT'
p1872
S'C>G'
p1873
tp1874
F0.0031980246619762306
s(S'GTC'
p1875
S'T>G'
p1876
tp1877
F0.0017105713308244953
s(S'ATC'
p1878
S'T>C'
p1879
tp1880
F0.013937437712891758
s(S'GTA'
p1881
S'T>A'
p1882
tp1883
F0.009936188252093591
s(S'TTC'
p1884
S'T>A'
p1885
tp1886
F0.0076157610554968835
s(S'ACG'
p1887
S'C>G'
p1888
tp1889
F0.005607699058442041
s(S'ATA'
p1890
S'T>G'
p1891
tp1892
F0.000297490666230347
s(S'ATG'
p1893
S'T>G'
p1894
tp1895
F0.00028261613291882966
s(S'ACC'
p1896
S'C>T'
p1897
tp1898
F0.025911437028663227
s(S'GCA'
p1899
S'C>A'
p1900
tp1901
F0.003376519061714439
s(S'GTT'
p1902
S'T>C'
p1903
tp1904
F0.016778473575391573
s(S'CTC'
p1905
S'T>C'
p1906
tp1907
F0.02342738996563983
s(S'TTA'
p1908
S'T>C'
p1909
tp1910
F0.011929375715836915
s(S'ACA'
p1911
S'C>A'
p1912
tp1913
F0.01094765651727677
s(S'GCG'
p1914
S'C>A'
p1915
tp1916
F0.004536732660012792
s(S'TTG'
p1917
S'T>G'
p1918
tp1919
F0.0007734757321989022
s(S'CTG'
p1920
S'T>G'
p1921
tp1922
F0.0004759850659685552
s(S'TCG'
p1923
S'C>G'
p1924
tp1925
F0.0023055526632851896
s(S'CCC'
p1926
S'C>A'
p1927
tp1928
F0.011245147183507118
s(S'GTG'
p1929
S'T>G'
p1930
tp1931
F0.0015469514643978045
s(S'CCT'
p1932
S'C>A'
p1933
tp1934
F0.014919156911451903
s(S'GTA'
p1935
S'T>G'
p1936
tp1937
F0.0008775974653795237
s(S'TTC'
p1938
S'T>C'
p1939
tp1940
F0.019009653572119176
s(S'ATA'
p1941
S'T>A'
p1942
tp1943
F0.004164869327224858
s(S'GTC'
p1944
S'T>C'
p1945
tp1946
F0.024899968763480045
s(S'CTG'
p1947
S'T>C'
p1948
tp1949
F0.016599979175653364
s(S'ATC'
p1950
S'T>G'
p1951
tp1952
F0.00025286706629579496
s(S'CTT'
p1953
S'T>G'
p1954
tp1955
F0.0002082434663612429
s(S'GCA'
p1956
S'C>G'
p1957
tp1958
F0.0017551949307590474
s(S'GCT'
p1959
S'C>G'
p1960
tp1961
F0.0007437266655758675
s(S'ATT'
p1962
S'T>A'
p1963
tp1964
F0.005369706525457763
s(S'TTT'
p1965
S'T>C'
p1966
tp1967
F0.013163961980692855
s(S'ATG'
p1968
S'T>C'
p1969
tp1970
F0.016242990376176946
s(S'CTA'
p1971
S'T>C'
p1972
tp1973
F0.01527614571092832
s(S'TTG'
p1974
S'T>A'
p1975
tp1976
F0.005964687857918457
s(S'GCC'
p1977
S'C>T'
p1978
tp1979
F0.02363563343200107
s(S'GTT'
p1980
S'T>G'
p1981
tp1982
F0.0010858409317407666
s(S'GCC'
p1983
S'C>G'
p1984
tp1985
F0.002275803596662155
s(S'TTA'
p1986
S'T>G'
p1987
tp1988
F0.0001189962664921388
s(S'GTG'
p1989
S'T>A'
p1990
tp1991
F0.013625072513349894
s(S'TCC'
p1992
S'C>G'
p1993
tp1994
F0.003376519061714439
s(S'CCT'
p1995
S'C>T'
p1996
tp1997
F0.03055229142185664
s(S'ACT'
p1998
S'C>A'
p1999
tp2000
F0.009251959719763793
s(S'CCG'
p2001
S'C>T'
p2002
tp2003
F0.01902452810543069
s(S'CCG'
p2004
S'C>G'
p2005
tp2006
F0.0038822531943060287
s(S'GTA'
p2007
S'T>C'
p2008
tp2009
F0.015365392910797424
s(S'TCT'
p2010
S'C>G'
p2011
tp2012
F0.0037483823945023724
s(S'GCT'
p2013
S'C>A'
p2014
tp2015
F0.003049279328861057
s(S'TCA'
p2016
S'C>G'
p2017
tp2018
F0.005577949991819007
s(S'ACG'
p2019
S'C>A'
p2020
tp2021
F0.007422392122447158
s(S'TCA'
p2022
S'C>T'
p2023
tp2024
F0.036100492347052614
s(S'ACG'
p2025
S'C>T'
p2026
tp2027
F0.012197117315444228
s(S'GCA'
p2028
S'C>T'
p2029
tp2030
F0.020407859703401806
s(S'CTT'
p2031
S'T>C'
p2032
tp2033
F0.014919156911451903
s(S'CCA'
p2034
S'C>G'
p2035
tp2036
F0.004744976126374035
s(S'GTT'
p2037
S'T>A'
p2038
tp2039
F0.008076871588153922
ssS'f.vcf'
p2040
g2
(g3
tp2041
Rp2042
(S'CTC'
p2043
S'T>A'
p2044
tp2045
F0.011118301076533913
s(S'GCC'
p2046
S'C>A'
p2047
tp2048
F0.005765045002647215
s(S'TCC'
p2049
S'C>A'
p2050
tp2051
F0.013206659215247956
s(S'TTT'
p2052
S'T>G'
p2053
tp2054
F0.00011765397964586152
s(S'GCG'
p2055
S'C>G'
p2056
tp2057
F0.0010588858168127538
s(S'CTA'
p2058
S'T>G'
p2059
tp2060
F0.0003235484440261192
s(S'CTC'
p2061
S'T>G'
p2062
tp2063
F0.0003529619389375846
s(S'CCG'
p2064
S'C>A'
p2065
tp2066
F0.0063239014059650565
s(S'CCC'
p2067
S'C>G'
p2068
tp2069
F0.0010882993117242192
s(S'CCT'
p2070
S'C>G'
p2071
tp2072
F0.001705982704864992
s(S'TCT'
p2073
S'C>A'
p2074
tp2075
F0.01579504676745691
s(S'TCT'
p2076
S'C>T'
p2077
tp2078
F0.033149008765221484
s(S'GTC'
p2079
S'T>A'
p2080
tp2081
F0.015353844343784928
s(S'ATC'
p2082
S'T>A'
p2083
tp2084
F0.009265250897111594
s(S'ATT'
p2085
S'T>C'
p2086
tp2087
F0.011000647096888052
s(S'TTT'
p2088
S'T>A'
p2089
tp2090
F0.004735572680745926
s(S'CCA'
p2091
S'C>T'
p2092
tp2093
F0.04576739808224013
s(S'GCG'
p2094
S'C>T'
p2095
tp2096
F0.01350079416436261
s(S'ACC'
p2097
S'C>A'
p2098
tp2099
F0.010353550208835815
s(S'TTA'
p2100
S'T>A'
p2101
tp2102
F0.003911994823224896
s(S'CCC'
p2103
S'C>T'
p2104
tp2105
F0.02847226307429849
s(S'TCG'
p2106
S'C>T'
p2107
tp2108
F0.010765339137596329
s(S'CTG'
p2109
S'T>A'
p2110
tp2111
F0.007823989646449791
s(S'TCG'
p2112
S'C>A'
p2113
tp2114
F0.00617683393140773
s(S'ACT'
p2115
S'C>T'
p2116
tp2117
F0.023324901464792047
s(S'TCA'
p2118
S'C>A'
p2119
tp2120
F0.008676980998882287
s(S'ATA'
p2121
S'T>C'
p2122
tp2123
F0.00814753809047591
s(S'CTT'
p2124
S'T>A'
p2125
tp2126
F0.007912230131184188
s(S'CCA'
p2127
S'C>A'
p2128
tp2129
F0.011177128066356845
s(S'GCT'
p2130
S'C>T'
p2131
tp2132
F0.024677922230719455
s(S'ACC'
p2133
S'C>G'
p2134
tp2135
F0.004617918701100065
s(S'ATT'
p2136
S'T>G'
p2137
tp2138
F0.0001764809694687923
s(S'ATG'
p2139
S'T>A'
p2140
tp2141
F0.007794576151538325
s(S'CTA'
p2142
S'T>A'
p2143
tp2144
F0.00820636508029884
s(S'TTG'
p2145
S'T>C'
p2146
tp2147
F0.014000823577857521
s(S'TCC'
p2148
S'C>T'
p2149
tp2150
F0.0358550502970763
s(S'ACA'
p2151
S'C>T'
p2152
tp2153
F0.03444320254132596
s(S'GTG'
p2154
S'T>C'
p2155
tp2156
F0.02061885993293723
s(S'ACA'
p2157
S'C>G'
p2158
tp2159
F0.003853167833401965
s(S'TTC'
p2160
S'T>G'
p2161
tp2162
F0.0003529619389375846
s(S'ACT'
p2163
S'C>G'
p2164
tp2165
F0.0017353961997764575
s(S'GTC'
p2166
S'T>G'
p2167
tp2168
F0.0010294723219012882
s(S'ATC'
p2169
S'T>C'
p2170
tp2171
F0.013589034649097005
s(S'GTA'
p2172
S'T>A'
p2173
tp2174
F0.012647802811930113
s(S'TTC'
p2175
S'T>A'
p2176
tp2177
F0.009000529442908406
s(S'ACG'
p2178
S'C>G'
p2179
tp2180
F0.0037355138537561033
s(S'ATA'
p2181
S'T>G'
p2182
tp2183
F0.0003529619389375846
s(S'ATG'
p2184
S'T>G'
p2185
tp2186
F0.00020589446438025767
s(S'ACC'
p2187
S'C>T'
p2188
tp2189
F0.030031178304606155
s(S'GCA'
p2190
S'C>A'
p2191
tp2192
F0.002147185128536973
s(S'GTT'
p2193
S'T>C'
p2194
tp2195
F0.01579504676745691
s(S'CTC'
p2196
S'T>C'
p2197
tp2198
F0.022736631566562738
s(S'TTA'
p2199
S'T>C'
p2200
tp2201
F0.011677157479851756
s(S'ACA'
p2202
S'C>A'
p2203
tp2204
F0.007265133243131949
s(S'GCG'
p2205
S'C>A'
p2206
tp2207
F0.003853167833401965
s(S'TTG'
p2208
S'T>G'
p2209
tp2210
F0.0010000588269898228
s(S'CTG'
p2211
S'T>G'
p2212
tp2213
F0.000617683393140773
s(S'TCG'
p2214
S'C>G'
p2215
tp2216
F0.001853050179422319
s(S'CCC'
p2217
S'C>A'
p2218
tp2219
F0.008765221483616683
s(S'GTG'
p2220
S'T>G'
p2221
tp2222
F0.0008824048473439614
s(S'CCT'
p2223
S'C>A'
p2224
tp2225
F0.012883110771221836
s(S'GTA'
p2226
S'T>G'
p2227
tp2228
F0.0005882698982293077
s(S'TTC'
p2229
S'T>C'
p2230
tp2231
F0.01891287722807224
s(S'ATA'
p2232
S'T>A'
p2233
tp2234
F0.0046473321960115305
s(S'GTC'
p2235
S'T>C'
p2236
tp2237
F0.025119124654391436
s(S'CTG'
p2238
S'T>C'
p2239
tp2240
F0.015500911818342256
s(S'ATC'
p2241
S'T>G'
p2242
tp2243
F0.0001764809694687923
s(S'CTT'
p2244
S'T>G'
p2245
tp2246
F0.0003529619389375846
s(S'GCA'
p2247
S'C>G'
p2248
tp2249
F0.001382434260838873
s(S'GCT'
p2250
S'C>G'
p2251
tp2252
F0.00041178892876051534
s(S'ATT'
p2253
S'T>A'
p2254
tp2255
F0.0060885934466733335
s(S'TTT'
p2256
S'T>C'
p2257
tp2258
F0.013294899699982352
s(S'ATG'
p2259
S'T>C'
p2260
tp2261
F0.013294899699982352
s(S'CTA'
p2262
S'T>C'
p2263
tp2264
F0.01426554503206071
s(S'TTG'
p2265
S'T>A'
p2266
tp2267
F0.008000470615918583
s(S'GCC'
p2268
S'C>T'
p2269
tp2270
F0.028089887640449437
s(S'GTT'
p2271
S'T>G'
p2272
tp2273
F0.00114712630154715
s(S'GCC'
p2274
S'C>G'
p2275
tp2276
F0.001470674745573269
s(S'TTA'
p2277
S'T>G'
p2278
tp2279
F0.0002941349491146538
s(S'GTG'
p2280
S'T>A'
p2281
tp2282
F0.016706865109712338
s(S'TCC'
p2283
S'C>G'
p2284
tp2285
F0.002029531148891111
s(S'CCT'
p2286
S'C>T'
p2287
tp2288
F0.03464909700570622
s(S'ACT'
p2289
S'C>A'
p2290
tp2291
F0.006235660921230661
s(S'CCG'
p2292
S'C>T'
p2293
tp2294
F0.020030590034707925
s(S'CCG'
p2295
S'C>G'
p2296
tp2297
F0.003147243955526796
s(S'GTA'
p2298
S'T>C'
p2299
tp2300
F0.014559679981175364
s(S'TCT'
p2301
S'C>G'
p2302
tp2303
F0.0025589740572974883
s(S'GCT'
p2304
S'C>A'
p2305
tp2306
F0.0020589446438025764
s(S'TCA'
p2307
S'C>G'
p2308
tp2309
F0.0035296193893758457
s(S'ACG'
p2310
S'C>A'
p2311
tp2312
F0.00617683393140773
s(S'TCA'
p2313
S'C>T'
p2314
tp2315
F0.040090593564327315
s(S'ACG'
p2316
S'C>T'
p2317
tp2318
F0.012500735337372787
s(S'GCA'
p2319
S'C>T'
p2320
tp2321
F0.023971998352844286
s(S'CTT'
p2322
S'T>C'
p2323
tp2324
F0.01350079416436261
s(S'CCA'
p2325
S'C>G'
p2326
tp2327
F0.0035002058944643803
s(S'GTT'
p2328
S'T>A'
p2329
tp2330
F0.008941702453085476
ssS's.vcf'
p2331
g2
(g3
tp2332
Rp2333
(S'CTC'
p2334
S'T>A'
p2335
tp2336
F0.015848847671119107
s(S'GCC'
p2337
S'C>A'
p2338
tp2339
F0.006321083350635569
s(S'TCC'
p2340
S'C>A'
p2341
tp2342
F0.010335201974761806
s(S'TTT'
p2343
S'T>G'
p2344
tp2345
F0.00039218400350658636
s(S'GCG'
p2346
S'C>G'
p2347
tp2348
F0.0010612037741942926
s(S'CTA'
p2349
S'T>G'
p2350
tp2351
F0.0006228804761575196
s(S'GCC'
p2352
S'C>G'
p2353
tp2354
F0.0028144969663413846
s(S'CCG'
p2355
S'C>A'
p2356
tp2357
F0.0061365261725148225
s(S'CCC'
p2358
S'C>G'
p2359
tp2360
F0.0014072484831706923
s(S'CCT'
p2361
S'C>G'
p2362
tp2363
F0.0014995270722310656
s(S'TCT'
p2364
S'C>A'
p2365
tp2366
F0.010819664567328765
s(S'TCT'
p2367
S'C>T'
p2368
tp2369
F0.029321521673933607
s(S'GTC'
p2370
S'T>A'
p2371
tp2372
F0.017279165801554894
s(S'ATC'
p2373
S'T>A'
p2374
tp2375
F0.011050361039979698
s(S'ATT'
p2376
S'T>C'
p2377
tp2378
F0.00842042125175906
s(S'TTT'
p2379
S'T>A'
p2380
tp2381
F0.00472927768934413
s(S'CCA'
p2382
S'C>T'
p2383
tp2384
F0.040694857775624614
s(S'GCG'
p2385
S'C>T'
p2386
tp2387
F0.013103559646573004
s(S'ACC'
p2388
S'C>A'
p2389
tp2390
F0.009435485731423167
s(S'TTA'
p2391
S'T>A'
p2392
tp2393
F0.0034143077952338108
s(S'CCC'
p2394
S'C>T'
p2395
tp2396
F0.024246199275613077
s(S'TCG'
p2397
S'C>T'
p2398
tp2399
F0.009643112556809006
s(S'CTG'
p2400
S'T>A'
p2401
tp2402
F0.010265993032966526
s(S'TCG'
p2403
S'C>A'
p2404
tp2405
F0.004429372274897917
s(S'ACT'
p2406
S'C>T'
p2407
tp2408
F0.020924170069439637
s(S'TCA'
p2409
S'C>A'
p2410
tp2411
F0.008305073015433593
s(S'ATA'
p2412
S'T>C'
p2413
tp2414
F0.01049668950561746
s(S'CTT'
p2415
S'T>A'
p2416
tp2417
F0.007451496066625141
s(S'CCA'
p2418
S'C>A'
p2419
tp2420
F0.01328811682469375
s(S'GCT'
p2421
S'C>T'
p2422
tp2423
F0.020278219946017025
s(S'ACC'
p2424
S'C>G'
p2425
tp2426
F0.0030913327335225045
s(S'ATT'
p2427
S'T>G'
p2428
tp2429
F0.00036911435624149304
s(S'ATG'
p2430
S'T>A'
p2431
tp2432
F0.011903937988788152
s(S'CTA'
p2433
S'T>A'
p2434
tp2435
F0.01049668950561746
s(S'TTG'
p2436
S'T>C'
p2437
tp2438
F0.013011281057512631
s(S'TCC'
p2439
S'C>T'
p2440
tp2441
F0.031882252520358964
s(S'ACA'
p2442
S'C>T'
p2443
tp2444
F0.028144969663413847
s(S'GTG'
p2445
S'T>C'
p2446
tp2447
F0.02648395506032713
s(S'ACA'
p2448
S'C>G'
p2449
tp2450
F0.003483516737029091
s(S'TTC'
p2451
S'T>G'
p2452
tp2453
F0.0005767411816273329
s(S'ACT'
p2454
S'C>G'
p2455
tp2456
F0.0011534823632546659
s(S'GTC'
p2457
S'T>G'
p2458
tp2459
F0.001983989664798025
s(S'ATC'
p2460
S'T>C'
p2461
tp2462
F0.014695365307864442
s(S'GTA'
p2463
S'T>A'
p2464
tp2465
F0.012826723879391884
s(S'TTC'
p2466
S'T>A'
p2467
tp2468
F0.01077352527279858
s(S'ACG'
p2469
S'C>G'
p2470
tp2471
F0.002629939788220638
s(S'ATA'
p2472
S'T>G'
p2473
tp2474
F0.000438323298036773
s(S'ATG'
p2475
S'T>G'
p2476
tp2477
F0.00048446259256695965
s(S'ACC'
p2478
S'C>T'
p2479
tp2480
F0.026922278358363902
s(S'GCA'
p2481
S'C>A'
p2482
tp2483
F0.0027452880245461045
s(S'GTT'
p2484
S'T>C'
p2485
tp2486
F0.01947078229173876
s(S'CTC'
p2487
S'T>C'
p2488
tp2489
F0.02802962142708838
s(S'TTA'
p2490
S'T>C'
p2491
tp2492
F0.006874754884997808
s(S'ACA'
p2493
S'C>A'
p2494
tp2495
F0.007290008535769488
s(S'GCG'
p2496
S'C>A'
p2497
tp2498
F0.003229750617113064
s(S'TTG'
p2499
S'T>G'
p2500
tp2501
F0.0012688305995801324
s(S'CTG'
p2502
S'T>G'
p2503
tp2504
F0.0014995270722310656
s(S'TCG'
p2505
S'C>G'
p2506
tp2507
F0.0016840842503518122
s(S'CCC'
p2508
S'C>A'
p2509
tp2510
F0.009573903615013726
s(S'GTG'
p2511
S'T>G'
p2512
tp2513
F0.0021685468429187716
s(S'CCT'
p2514
S'C>A'
p2515
tp2516
F0.010658177036473112
s(S'GTA'
p2517
S'T>G'
p2518
tp2519
F0.001176552010519759
s(S'TTC'
p2520
S'T>C'
p2521
tp2522
F0.02150091125106697
s(S'ATA'
p2523
S'T>A'
p2524
tp2525
F0.006667128059611969
s(S'GTC'
p2526
S'T>C'
p2527
tp2528
F0.02985212356103075
s(S'CTG'
p2529
S'T>C'
p2530
tp2531
F0.020001384178835905
s(S'ATC'
p2532
S'T>G'
p2533
tp2534
F0.000876646596073546
s(S'CTT'
p2535
S'T>G'
p2536
tp2537
F0.00032297506171130645
s(S'GCA'
p2538
S'C>G'
p2539
tp2540
F0.0014072484831706923
s(S'GCT'
p2541
S'C>G'
p2542
tp2543
F0.0006920894179527995
s(S'ATT'
p2544
S'T>A'
p2545
tp2546
F0.005859690405333702
s(S'TTT'
p2547
S'T>C'
p2548
tp2549
F0.01218077375596927
s(S'ATG'
p2550
S'T>C'
p2551
tp2552
F0.019862966295245345
s(S'CTA'
p2553
S'T>C'
p2554
tp2555
F0.01891711075737652
s(S'TTG'
p2556
S'T>A'
p2557
tp2558
F0.007313078183034581
s(S'GCC'
p2559
S'C>T'
p2560
tp2561
F0.023969363508431957
s(S'GTT'
p2562
S'T>G'
p2563
tp2564
F0.002353104021039518
s(S'CTC'
p2565
S'T>G'
p2566
tp2567
F0.000807437654278266
s(S'TTA'
p2568
S'T>G'
p2569
tp2570
F0.0001384178835905599
s(S'GTG'
p2571
S'T>A'
p2572
tp2573
F0.019032458993701987
s(S'TCC'
p2574
S'C>G'
p2575
tp2576
F0.0017994324866772787
s(S'CCT'
p2577
S'C>T'
p2578
tp2579
F0.02906775555401758
s(S'ACT'
p2580
S'C>A'
p2581
tp2582
F0.006436431586961036
s(S'CCG'
p2583
S'C>T'
p2584
tp2585
F0.017648280157796386
s(S'CCG'
p2586
S'C>G'
p2587
tp2588
F0.002929845202666851
s(S'GTA'
p2589
S'T>C'
p2590
tp2591
F0.0193323644081482
s(S'TCT'
p2592
S'C>G'
p2593
tp2594
F0.001960920017532932
s(S'GCT'
p2595
S'C>A'
p2596
tp2597
F0.0028606362608715715
s(S'TCA'
p2598
S'C>G'
p2599
tp2600
F0.0031836113225828778
s(S'ACG'
p2601
S'C>A'
p2602
tp2603
F0.005006113456525249
s(S'TCA'
p2604
S'C>T'
p2605
tp2606
F0.03605785867534085
s(S'ACG'
p2607
S'C>T'
p2608
tp2609
F0.012572957759475858
s(S'GCA'
p2610
S'C>T'
p2611
tp2612
F0.019217016171822733
s(S'CTT'
p2613
S'T>C'
p2614
tp2615
F0.01564122084573327
s(S'CCA'
p2616
S'C>G'
p2617
tp2618
F0.0027452880245461045
s(S'GTT'
p2619
S'T>A'
p2620
tp2621
F0.010727385978268392
ssS'm.vcf'
p2622
g2
(g3
tp2623
Rp2624
(S'CTC'
p2625
S'T>A'
p2626
tp2627
F0.013868587115405184
s(S'GCC'
p2628
S'C>A'
p2629
tp2630
F0.005775606973510642
s(S'TCC'
p2631
S'C>A'
p2632
tp2633
F0.010570786837320404
s(S'TTT'
p2634
S'T>G'
p2635
tp2636
F0.0001604335270419623
s(S'GCG'
p2637
S'C>G'
p2638
tp2639
F0.001140860636742843
s(S'CTA'
p2640
S'T>G'
p2641
tp2642
F0.0002673892117366038
s(S'CTC'
p2643
S'T>G'
p2644
tp2645
F0.0008021676352098114
s(S'CCG'
p2646
S'C>A'
p2647
tp2648
F0.005722129131163321
s(S'CCC'
p2649
S'C>G'
p2650
tp2651
F0.0009804271097008806
s(S'CCT'
p2652
S'C>G'
p2653
tp2654
F0.0014260757959285537
s(S'TCT'
p2655
S'C>A'
p2656
tp2657
F0.011943384790901637
s(S'TCT'
p2658
S'C>T'
p2659
tp2660
F0.0337445185211594
s(S'GTC'
p2661
S'T>A'
p2662
tp2663
F0.016756390602160505
s(S'ATC'
p2664
S'T>A'
p2665
tp2666
F0.009715141359763271
s(S'ATT'
p2667
S'T>C'
p2668
tp2669
F0.008146457984241863
s(S'TTT'
p2670
S'T>A'
p2671
tp2672
F0.005258654497486541
s(S'CCA'
p2673
S'C>T'
p2674
tp2675
F0.0466326785268637
s(S'GCG'
p2676
S'C>T'
p2677
tp2678
F0.01406467253734536
s(S'ACC'
p2679
S'C>A'
p2680
tp2681
F0.008199935826589183
s(S'TTA'
p2682
S'T>A'
p2683
tp2684
F0.004581268494420479
s(S'CCC'
p2685
S'C>T'
p2686
tp2687
F0.03005454739919427
s(S'TCG'
p2688
S'C>T'
p2689
tp2690
F0.011426432314877536
s(S'CTG'
p2691
S'T>A'
p2692
tp2693
F0.00909123319904453
s(S'TCG'
p2694
S'C>A'
p2695
tp2696
F0.004135619808192805
s(S'ACT'
p2697
S'C>T'
p2698
tp2699
F0.023815465792006846
s(S'TCA'
p2700
S'C>A'
p2701
tp2702
F0.007576027665870441
s(S'ATA'
p2703
S'T>C'
p2704
tp2705
F0.008075154194445435
s(S'CTT'
p2706
S'T>A'
p2707
tp2708
F0.007326464401582944
s(S'CCA'
p2709
S'C>A'
p2710
tp2711
F0.01128382473528468
s(S'GCT'
p2712
S'C>T'
p2713
tp2714
F0.027398481229277336
s(S'ACC'
p2715
S'C>G'
p2716
tp2717
F0.002709544012264252
s(S'ATT'
p2718
S'T>G'
p2719
tp2720
F0.00030304110663481766
s(S'ATG'
p2721
S'T>A'
p2722
tp2723
F0.007789939035259724
s(S'CTA'
p2724
S'T>A'
p2725
tp2726
F0.009590359727619523
s(S'TTG'
p2727
S'T>C'
p2728
tp2729
F0.014225106064387321
s(S'TCC'
p2730
S'C>T'
p2731
tp2732
F0.03827230917323256
s(S'ACA'
p2733
S'C>T'
p2734
tp2735
F0.03415451531248886
s(S'GTG'
p2736
S'T>C'
p2737
tp2738
F0.020624621198616706
s(S'ACA'
p2739
S'C>G'
p2740
tp2741
F0.0036543192270669187
s(S'TTC'
p2742
S'T>G'
p2743
tp2744
F0.0007486897928624906
s(S'ACT'
p2745
S'C>G'
p2746
tp2747
F0.001301294163784805
s(S'GTC'
p2748
S'T>G'
p2749
tp2750
F0.0017469428500124782
s(S'ATC'
p2751
S'T>C'
p2752
tp2753
F0.011586865841919498
s(S'GTA'
p2754
S'T>A'
p2755
tp2756
F0.01342293842917751
s(S'TTC'
p2757
S'T>A'
p2758
tp2759
F0.008021676352098115
s(S'ACG'
p2760
S'C>G'
p2761
tp2762
F0.003279974330635673
s(S'ATA'
p2763
S'T>G'
p2764
tp2765
F0.0003743448964312453
s(S'ATG'
p2766
S'T>G'
p2767
tp2768
F0.00021391136938928303
s(S'ACC'
p2769
S'C>T'
p2770
tp2771
F0.031284537773182644
s(S'GCA'
p2772
S'C>A'
p2773
tp2774
F0.0024065029056294343
s(S'GTT'
p2775
S'T>C'
p2776
tp2777
F0.01713073549859175
s(S'CTC'
p2778
S'T>C'
p2779
tp2780
F0.022478519733323828
s(S'TTA'
p2781
S'T>C'
p2782
tp2783
F0.009501229990373988
s(S'ACA'
p2784
S'C>A'
p2785
tp2786
F0.007130378979642768
s(S'GCG'
p2787
S'C>A'
p2788
tp2789
F0.002673892117366038
s(S'TTG'
p2790
S'T>G'
p2791
tp2792
F0.0009626011622517736
s(S'CTG'
p2793
S'T>G'
p2794
tp2795
F0.0006239081607187422
s(S'TCG'
p2796
S'C>G'
p2797
tp2798
F0.0012299903739883774
s(S'CCC'
p2799
S'C>A'
p2800
tp2801
F0.008235587721487397
s(S'GTG'
p2802
S'T>G'
p2803
tp2804
F0.0014795536382758744
s(S'CCT'
p2805
S'C>A'
p2806
tp2807
F0.011711647474063246
s(S'GTA'
p2808
S'T>G'
p2809
tp2810
F0.0007486897928624906
s(S'TTC'
p2811
S'T>C'
p2812
tp2813
F0.016578131127669437
s(S'ATA'
p2814
S'T>A'
p2815
tp2816
F0.005098220970444579
s(S'GTC'
p2817
S'T>C'
p2818
tp2819
F0.026935006595600556
s(S'CTG'
p2820
S'T>C'
p2821
tp2822
F0.014492495276123925
s(S'ATC'
p2823
S'T>G'
p2824
tp2825
F0.0005704303183714215
s(S'CTT'
p2826
S'T>G'
p2827
tp2828
F0.0003565189489821384
s(S'GCA'
p2829
S'C>G'
p2830
tp2831
F0.001105208741844629
s(S'GCT'
p2832
S'C>G'
p2833
tp2834
F0.00040999679132945914
s(S'ATT'
p2835
S'T>A'
p2836
tp2837
F0.006559948661271346
s(S'TTT'
p2838
S'T>C'
p2839
tp2840
F0.011961210738350743
s(S'ATG'
p2841
S'T>C'
p2842
tp2843
F0.012050340475596277
s(S'CTA'
p2844
S'T>C'
p2845
tp2846
F0.0136546757460159
s(S'TTG'
p2847
S'T>A'
p2848
tp2849
F0.007772113087810617
s(S'GCC'
p2850
S'C>T'
p2851
tp2852
F0.02754108880887019
s(S'GTT'
p2853
S'T>G'
p2854
tp2855
F0.0016043352704196228
s(S'GCC'
p2856
S'C>G'
p2857
tp2858
F0.0019252023245035473
s(S'TTA'
p2859
S'T>G'
p2860
tp2861
F0.0001960854219401761
s(S'GTG'
p2862
S'T>A'
p2863
tp2864
F0.01656030518022033
s(S'TCC'
p2865
S'C>G'
p2866
tp2867
F0.001800420692359799
s(S'CCT'
p2868
S'C>T'
p2869
tp2870
F0.03713144853648971
s(S'ACT'
p2871
S'C>A'
p2872
tp2873
F0.005722129131163321
s(S'CCG'
p2874
S'C>T'
p2875
tp2876
F0.022389389996078292
s(S'CCG'
p2877
S'C>G'
p2878
tp2879
F0.0025134585903240757
s(S'GTA'
p2880
S'T>C'
p2881
tp2882
F0.015597704017968556
s(S'TCT'
p2883
S'C>G'
p2884
tp2885
F0.0014260757959285537
s(S'GCT'
p2886
S'C>A'
p2887
tp2888
F0.002228243431138365
s(S'TCA'
p2889
S'C>G'
p2890
tp2891
F0.0032621483831865665
s(S'ACG'
p2892
S'C>A'
p2893
tp2894
F0.005080395022995472
s(S'TCA'
p2895
S'C>T'
p2896
tp2897
F0.04228314734928162
s(S'ACG'
p2898
S'C>T'
p2899
tp2900
F0.013226853007237334
s(S'GCA'
p2901
S'C>T'
p2902
tp2903
F0.02504545616599522
s(S'CTT'
p2904
S'T>C'
p2905
tp2906
F0.014029020642447146
s(S'CCA'
p2907
S'C>G'
p2908
tp2909
F0.0036899711219651327
s(S'GTT'
p2910
S'T>A'
p2911
tp2912
F0.009643837569966843
ssS'j.vcf'
p2913
g2
(g3
tp2914
Rp2915
(S'CTC'
p2916
S'T>A'
p2917
tp2918
F0.013644437267883093
s(S'GCC'
p2919
S'C>A'
p2920
tp2921
F0.005126756014855482
s(S'TCC'
p2922
S'C>A'
p2923
tp2924
F0.011989342806394316
s(S'TTT'
p2925
S'T>G'
p2926
tp2927
F0.00016147263038914905
s(S'GCG'
p2928
S'C>G'
p2929
tp2930
F0.000928467624737607
s(S'CTA'
p2931
S'T>G'
p2932
tp2933
F0.0003229452607782981
s(S'GCC'
p2934
S'C>G'
p2935
tp2936
F0.0014128855159050541
s(S'CCG'
p2937
S'C>A'
p2938
tp2939
F0.006701114161149685
s(S'CCC'
p2940
S'C>G'
p2941
tp2942
F0.0010092039399321815
s(S'CCT'
p2943
S'C>G'
p2944
tp2945
F0.0017761989342806395
s(S'TCT'
p2946
S'C>A'
p2947
tp2948
F0.012594865170353626
s(S'TTC'
p2949
S'T>A'
p2950
tp2951
F0.00839657678023575
s(S'GTC'
p2952
S'T>A'
p2953
tp2954
F0.01756014855481996
s(S'ATC'
p2955
S'T>A'
p2956
tp2957
F0.009244308089778783
s(S'ATT'
p2958
S'T>C'
p2959
tp2960
F0.010334248344905539
s(S'TTT'
p2961
S'T>A'
p2962
tp2963
F0.003269820765380268
s(S'CCA'
p2964
S'C>T'
p2965
tp2966
F0.04674632649765865
s(S'GCG'
p2967
S'C>T'
p2968
tp2969
F0.014895850153398999
s(S'ACC'
p2970
S'C>A'
p2971
tp2972
F0.008921362829000485
s(S'TTA'
p2973
S'T>A'
p2974
tp2975
F0.0049249152268690454
s(S'CCC'
p2976
S'C>T'
p2977
tp2978
F0.030518327143549167
s(S'TCG'
p2979
S'C>T'
p2980
tp2981
F0.011141611496851283
s(S'CTG'
p2982
S'T>A'
p2983
tp2984
F0.008033263361860164
s(S'TCG'
p2985
S'C>A'
p2986
tp2987
F0.00472307443888261
s(S'ACT'
p2988
S'C>T'
p2989
tp2990
F0.023211690618440174
s(S'TCA'
p2991
S'C>A'
p2992
tp2993
F0.008880994671403197
s(S'ATA'
p2994
S'T>C'
p2995
tp2996
F0.008880994671403197
s(S'CTT'
p2997
S'T>A'
p2998
tp2999
F0.00617632811238495
s(S'CCA'
p3000
S'C>A'
p3001
tp3002
F0.010213143872113677
s(S'GCT'
p3003
S'C>T'
p3004
tp3005
F0.025472307443888263
s(S'ACC'
p3006
S'C>G'
p3007
tp3008
F0.0031487162925884064
s(S'ATT'
p3009
S'T>G'
p3010
tp3011
F0.00016147263038914905
s(S'ATG'
p3012
S'T>A'
p3013
tp3014
F0.006943323106733409
s(S'CTA'
p3015
S'T>A'
p3016
tp3017
F0.007548845470692718
s(S'TTG'
p3018
S'T>C'
p3019
tp3020
F0.016066526723720328
s(S'TCC'
p3021
S'C>T'
p3022
tp3023
F0.03746165025028258
s(S'ACA'
p3024
S'C>T'
p3025
tp3026
F0.03257710318101082
s(S'GTG'
p3027
S'T>C'
p3028
tp3029
F0.02252543193928629
s(S'ACA'
p3030
S'C>G'
p3031
tp3032
F0.004480865493298886
s(S'TTC'
p3033
S'T>G'
p3034
tp3035
F0.00016147263038914905
s(S'ACT'
p3036
S'C>G'
p3037
tp3038
F0.0012110447279186178
s(S'GTC'
p3039
S'T>G'
p3040
tp3041
F0.0016147263038914905
s(S'ATC'
p3042
S'T>C'
p3043
tp3044
F0.012796705958340062
s(S'GTA'
p3045
S'T>A'
p3046
tp3047
F0.012029710963991603
s(S'TCT'
p3048
S'C>T'
p3049
tp3050
F0.03544324237041822
s(S'ACG'
p3051
S'C>G'
p3052
tp3053
F0.0028257710318101083
s(S'ATA'
p3054
S'T>G'
p3055
tp3056
F0.0004440497335701599
s(S'ATG'
p3057
S'T>G'
p3058
tp3059
F0.00028257710318101083
s(S'ACC'
p3060
S'C>T'
p3061
tp3062
F0.028822864524463105
s(S'GCA'
p3063
S'C>A'
p3064
tp3065
F0.0020991441950589376
s(S'GTT'
p3066
S'T>C'
p3067
tp3068
F0.016227999354109478
s(S'CTC'
p3069
S'T>C'
p3070
tp3071
F0.024059421927983205
s(S'TTA'
p3072
S'T>C'
p3073
tp3074
F0.01150492491522687
s(S'ACA'
p3075
S'C>A'
p3076
tp3077
F0.006499273373163248
s(S'GCG'
p3078
S'C>A'
p3079
tp3080
F0.0035120297109639915
s(S'TTG'
p3081
S'T>G'
p3082
tp3083
F0.0006862586791538834
s(S'CTG'
p3084
S'T>G'
p3085
tp3086
F0.0003229452607782981
s(S'TCG'
p3087
S'C>G'
p3088
tp3089
F0.0010495720975294688
s(S'CCC'
p3090
S'C>A'
p3091
tp3092
F0.009325044404973356
s(S'GTG'
p3093
S'T>G'
p3094
tp3095
F0.0015743581462942032
s(S'CCT'
p3096
S'C>A'
p3097
tp3098
F0.010616825448086549
s(S'GTA'
p3099
S'T>G'
p3100
tp3101
F0.0005247860487647344
s(S'TTC'
p3102
S'T>C'
p3103
tp3104
F0.018811561440335862
s(S'ATA'
p3105
S'T>A'
p3106
tp3107
F0.0038349749717422896
s(S'GTC'
p3108
S'T>C'
p3109
tp3110
F0.027531083481349913
s(S'CTG'
p3111
S'T>C'
p3112
tp3113
F0.014936218310996285
s(S'ATC'
p3114
S'T>G'
p3115
tp3116
F0.00016147263038914905
s(S'CTT'
p3117
S'T>G'
p3118
tp3119
F0.00016147263038914905
s(S'GCA'
p3120
S'C>G'
p3121
tp3122
F0.0010495720975294688
s(S'GCT'
p3123
S'C>G'
p3124
tp3125
F0.0004440497335701599
s(S'ATT'
p3126
S'T>A'
p3127
tp3128
F0.006337800742774099
s(S'TTT'
p3129
S'T>C'
p3130
tp3131
F0.01384627805586953
s(S'ATG'
p3132
S'T>C'
p3133
tp3134
F0.012271919909575327
s(S'CTA'
p3135
S'T>C'
p3136
tp3137
F0.014855481995801712
s(S'TTG'
p3138
S'T>A'
p3139
tp3140
F0.007912158889068302
s(S'GCC'
p3141
S'C>T'
p3142
tp3143
F0.026562247699015017
s(S'GTT'
p3144
S'T>G'
p3145
tp3146
F0.0014532536735023414
s(S'CTC'
p3147
S'T>G'
p3148
tp3149
F0.0005651542063620217
s(S'GTG'
p3150
S'T>A'
p3151
tp3152
F0.015501372517358308
s(S'TCC'
p3153
S'C>G'
p3154
tp3155
F0.001695462619086065
s(S'CCT'
p3156
S'C>T'
p3157
tp3158
F0.03528176974002906
s(S'ACT'
p3159
S'C>A'
p3160
tp3161
F0.005570805748425642
s(S'CCG'
p3162
S'C>T'
p3163
tp3164
F0.021879541417729693
s(S'CCG'
p3165
S'C>G'
p3166
tp3167
F0.0020991441950589376
s(S'GTA'
p3168
S'T>C'
p3169
tp3170
F0.016389471984498628
s(S'TCT'
p3171
S'C>G'
p3172
tp3173
F0.0017761989342806395
s(S'GCT'
p3174
S'C>A'
p3175
tp3176
F0.001856935249475214
s(S'TCA'
p3177
S'C>G'
p3178
tp3179
F0.0031890844501856934
s(S'ACG'
p3180
S'C>A'
p3181
tp3182
F0.005691910221217504
s(S'TCA'
p3183
S'C>T'
p3184
tp3185
F0.04218472468916518
s(S'ACG'
p3186
S'C>T'
p3187
tp3188
F0.01356370095268852
s(S'GCA'
p3189
S'C>T'
p3190
tp3191
F0.02373647666720491
s(S'CTT'
p3192
S'T>C'
p3193
tp3194
F0.014209591474245116
s(S'CCA'
p3195
S'C>G'
p3196
tp3197
F0.003754238656547715
s(S'GTT'
p3198
S'T>A'
p3199
tp3200
F0.009123203616986921
ssS'l.vcf'
p3201
g2
(g3
tp3202
Rp3203
(S'CTC'
p3204
S'T>A'
p3205
tp3206
F0.014355509982507992
s(S'GCC'
p3207
S'C>A'
p3208
tp3209
F0.0034984015923758974
s(S'TCC'
p3210
S'C>A'
p3211
tp3212
F0.007841244948428736
s(S'TTT'
p3213
S'T>G'
p3214
tp3215
F0.00018095180650220158
s(S'GCG'
p3216
S'C>G'
p3217
tp3218
F0.00024126907533626878
s(S'GCC'
p3219
S'C>G'
p3220
tp3221
F0.0009650763013450751
s(S'CCG'
p3222
S'C>A'
p3223
tp3224
F0.00343808432354183
s(S'CCC'
p3225
S'C>G'
p3226
tp3227
F0.00048253815067253756
s(S'CCT'
p3228
S'C>G'
p3229
tp3230
F0.0009650763013450751
s(S'TCT'
p3231
S'C>A'
p3232
tp3233
F0.009228542131612281
s(S'TTC'
p3234
S'T>A'
p3235
tp3236
F0.008866638518607877
s(S'GTC'
p3237
S'T>A'
p3238
tp3239
F0.017371373424211353
s(S'ATC'
p3240
S'T>A'
p3241
tp3242
F0.010314252970625491
s(S'ATT'
p3243
S'T>C'
p3244
tp3245
F0.009711080282284817
s(S'TTT'
p3246
S'T>A'
p3247
tp3248
F0.003920622474214368
s(S'CCA'
p3249
S'C>T'
p3250
tp3251
F0.04680620061523614
s(S'GCG'
p3252
S'C>T'
p3253
tp3254
F0.01399360636950359
s(S'ACC'
p3255
S'C>A'
p3256
tp3257
F0.006393630496411122
s(S'TTA'
p3258
S'T>A'
p3259
tp3260
F0.004222208818384704
s(S'CCC'
p3261
S'C>T'
p3262
tp3263
F0.031244345256046805
s(S'TCG'
p3264
S'C>T'
p3265
tp3266
F0.01073647385246396
s(S'CTG'
p3267
S'T>A'
p3268
tp3269
F0.013028530068158514
s(S'TCG'
p3270
S'C>A'
p3271
tp3272
F0.0024126907533626877
s(S'ACT'
p3273
S'C>T'
p3274
tp3275
F0.02515230110380602
s(S'TCA'
p3276
S'C>A'
p3277
tp3278
F0.005971409614572652
s(S'ATA'
p3279
S'T>C'
p3280
tp3281
F0.008565052174437541
s(S'CTT'
p3282
S'T>A'
p3283
tp3284
F0.006815851378249593
s(S'CCA'
p3285
S'C>A'
p3286
tp3287
F0.008987273056276012
s(S'GCT'
p3288
S'C>T'
p3289
tp3290
F0.029072923578020386
s(S'ACC'
p3291
S'C>G'
p3292
tp3293
F0.002533325291030822
s(S'ATT'
p3294
S'T>G'
p3295
tp3296
F0.00024126907533626878
s(S'ATG'
p3297
S'T>A'
p3298
tp3299
F0.009228542131612281
s(S'CTA'
p3300
S'T>A'
p3301
tp3302
F0.009349176669280415
s(S'TTG'
p3303
S'T>C'
p3304
tp3305
F0.01586344170335967
s(S'TCC'
p3306
S'C>T'
p3307
tp3308
F0.03594909222510405
s(S'ACA'
p3309
S'C>T'
p3310
tp3311
F0.03546655407443151
s(S'GTG'
p3312
S'T>C'
p3313
tp3314
F0.024247542071295012
s(S'ACA'
p3315
S'C>G'
p3316
tp3317
F0.003076180710537427
s(S'TTC'
p3318
S'T>G'
p3319
tp3320
F0.00048253815067253756
s(S'ACT'
p3321
S'C>G'
p3322
tp3323
F0.0006031726883406719
s(S'GTC'
p3324
S'T>G'
p3325
tp3326
F0.001568248989685747
s(S'ATC'
p3327
S'T>C'
p3328
tp3329
F0.012726943723988178
s(S'GTA'
p3330
S'T>A'
p3331
tp3332
F0.012787260992822245
s(S'TCT'
p3333
S'C>T'
p3334
tp3335
F0.03522528499909524
s(S'ACG'
p3336
S'C>G'
p3337
tp3338
F0.0013872971831835454
s(S'ATA'
p3339
S'T>G'
p3340
tp3341
F0.00030158634417033596
s(S'ACC'
p3342
S'C>T'
p3343
tp3344
F0.03233005609506002
s(S'GCA'
p3345
S'C>A'
p3346
tp3347
F0.002533325291030822
s(S'GTT'
p3348
S'T>C'
p3349
tp3350
F0.01586344170335967
s(S'CTC'
p3351
S'T>C'
p3352
tp3353
F0.025453887447976355
s(S'TTA'
p3354
S'T>C'
p3355
tp3356
F0.009530128475782617
s(S'ACA'
p3357
S'C>A'
p3358
tp3359
F0.005187285119729779
s(S'GCG'
p3360
S'C>A'
p3361
tp3362
F0.0016888835273538814
s(S'TTG'
p3363
S'T>G'
p3364
tp3365
F0.0005428554195066048
s(S'CTG'
p3366
S'T>G'
p3367
tp3368
F0.00048253815067253756
s(S'TCG'
p3369
S'C>G'
p3370
tp3371
F0.0010857108390132095
s(S'CCC'
p3372
S'C>A'
p3373
tp3374
F0.008082514023765005
s(S'GTG'
p3375
S'T>G'
p3376
tp3377
F0.00048253815067253756
s(S'CCT'
p3378
S'C>A'
p3379
tp3380
F0.009590445744616684
s(S'GTA'
p3381
S'T>G'
p3382
tp3383
F0.0006031726883406719
s(S'TTC'
p3384
S'T>C'
p3385
tp3386
F0.018638036069726763
s(S'ATA'
p3387
S'T>A'
p3388
tp3389
F0.004041257011882502
s(S'GTC'
p3390
S'T>C'
p3391
tp3392
F0.030822124374208337
s(S'CTG'
p3393
S'T>C'
p3394
tp3395
F0.017009469811206948
s(S'ATC'
p3396
S'T>G'
p3397
tp3398
F0.00024126907533626878
s(S'GCA'
p3399
S'C>G'
p3400
tp3401
F0.0006634899571747392
s(S'GCT'
p3402
S'C>G'
p3403
tp3404
F0.00042222088183847036
s(S'ATT'
p3405
S'T>A'
p3406
tp3407
F0.00536823692623198
s(S'TTT'
p3408
S'T>C'
p3409
tp3410
F0.011942819229145304
s(S'ATG'
p3411
S'T>C'
p3412
tp3413
F0.01206345376681344
s(S'CTA'
p3414
S'T>C'
p3415
tp3416
F0.014114240907171723
s(S'TTG'
p3417
S'T>A'
p3418
tp3419
F0.008866638518607877
s(S'GCC'
p3420
S'C>T'
p3421
tp3422
F0.02943482719102479
s(S'GTT'
p3423
S'T>G'
p3424
tp3425
F0.0007841244948428735
s(S'CTC'
p3426
S'T>G'
p3427
tp3428
F0.00048253815067253756
s(S'GTG'
p3429
S'T>A'
p3430
tp3431
F0.019180891489233368
s(S'TCC'
p3432
S'C>G'
p3433
tp3434
F0.0006634899571747392
s(S'CCT'
p3435
S'C>T'
p3436
tp3437
F0.03968876289281621
s(S'ACT'
p3438
S'C>A'
p3439
tp3440
F0.004342843356052838
s(S'CCG'
p3441
S'C>T'
p3442
tp3443
F0.023101513963447735
s(S'CCG'
p3444
S'C>G'
p3445
tp3446
F0.0013872971831835454
s(S'GTA'
p3447
S'T>C'
p3448
tp3449
F0.016707883467036614
s(S'TCT'
p3450
S'C>G'
p3451
tp3452
F0.0009047590325110079
s(S'GCT'
p3453
S'C>A'
p3454
tp3455
F0.0009047590325110079
s(S'TCA'
p3456
S'C>G'
p3457
tp3458
F0.00301586344170336
s(S'ACG'
p3459
S'C>A'
p3460
tp3461
F0.004584112431389106
s(S'TCA'
p3462
S'C>T'
p3463
tp3464
F0.043126847216358045
s(S'ACG'
p3465
S'C>T'
p3466
tp3467
F0.013812654563001387
s(S'GCA'
p3468
S'C>T'
p3469
tp3470
F0.0266602328246577
s(S'CTT'
p3471
S'T>C'
p3472
tp3473
F0.015199951746184933
s(S'CCA'
p3474
S'C>G'
p3475
tp3476
F0.0029555461728692925
s(S'GTT'
p3477
S'T>A'
p3478
tp3479
F0.009590445744616684
ssS'a.vcf'
p3480
g2
(g3
tp3481
Rp3482
(S'CTC'
p3483
S'T>A'
p3484
tp3485
F0.010275824770146024
s(S'GCC'
p3486
S'C>A'
p3487
tp3488
F0.008052400697073494
s(S'TCC'
p3489
S'C>A'
p3490
tp3491
F0.015894477495342826
s(S'TTT'
p3492
S'T>G'
p3493
tp3494
F0.0001802776275464215
s(S'GCG'
p3495
S'C>G'
p3496
tp3497
F0.002223424073072532
s(S'CTA'
p3498
S'T>G'
p3499
tp3500
F0.0001802776275464215
s(S'CTC'
p3501
S'T>G'
p3502
tp3503
F0.00030046271257736916
s(S'CCG'
p3504
S'C>A'
p3505
tp3506
F0.008533141037197284
s(S'CCC'
p3507
S'C>G'
p3508
tp3509
F0.0020731927167838473
s(S'CCT'
p3510
S'C>G'
p3511
tp3512
F0.003815876449732588
s(S'TCT'
p3513
S'C>A'
p3514
tp3515
F0.017486929872002885
s(S'TCT'
p3516
S'C>T'
p3517
tp3518
F0.024517757346313323
s(S'GTC'
p3519
S'T>A'
p3520
tp3521
F0.011988462231837029
s(S'ATC'
p3522
S'T>A'
p3523
tp3524
F0.007090920016825912
s(S'ATT'
p3525
S'T>C'
p3526
tp3527
F0.010696472567754342
s(S'TTT'
p3528
S'T>A'
p3529
tp3530
F0.0036956913647016405
s(S'CCA'
p3531
S'C>T'
p3532
tp3533
F0.03993149450153236
s(S'GCG'
p3534
S'C>T'
p3535
tp3536
F0.01646535664923983
s(S'ACC'
p3537
S'C>A'
p3538
tp3539
F0.01451234901748693
s(S'TTA'
p3540
S'T>A'
p3541
tp3542
F0.0036355988221861667
s(S'CCC'
p3543
S'C>T'
p3544
tp3545
F0.027402199387056066
s(S'TCG'
p3546
S'C>T'
p3547
tp3548
F0.013130220539631032
s(S'CTG'
p3549
S'T>A'
p3550
tp3551
F0.006580133405444384
s(S'TCG'
p3552
S'C>A'
p3553
tp3554
F0.007902169340784809
s(S'ACT'
p3555
S'C>T'
p3556
tp3557
F0.018839012078601045
s(S'TCA'
p3558
S'C>A'
p3559
tp3560
F0.011087074094104922
s(S'ATA'
p3561
S'T>C'
p3562
tp3563
F0.009765038158764497
s(S'CTT'
p3564
S'T>A'
p3565
tp3566
F0.005828976624000962
s(S'CCA'
p3567
S'C>A'
p3568
tp3569
F0.01598461630911604
s(S'GCT'
p3570
S'C>T'
p3571
tp3572
F0.021242713779219997
s(S'ACC'
p3573
S'C>G'
p3574
tp3575
F0.005919115437774172
s(S'ATT'
p3576
S'T>G'
p3577
tp3578
F6.009254251547383e-05
s(S'ATG'
p3579
S'T>A'
p3580
tp3581
F0.006219578150351541
s(S'CTA'
p3582
S'T>A'
p3583
tp3584
F0.006610179676702121
s(S'TTG'
p3585
S'T>C'
p3586
tp3587
F0.013160266810888768
s(S'TCC'
p3588
S'C>T'
p3589
tp3590
F0.03266029685716003
s(S'ACA'
p3591
S'C>T'
p3592
tp3593
F0.02559942311159185
s(S'GTG'
p3594
S'T>C'
p3595
tp3596
F0.02406706327744727
s(S'ACA'
p3597
S'C>G'
p3598
tp3599
F0.007000781203052702
s(S'TTC'
p3600
S'T>G'
p3601
tp3602
F0.0004506940688660537
s(S'ACT'
p3603
S'C>G'
p3604
tp3605
F0.004266570518598642
s(S'GTC'
p3606
S'T>G'
p3607
tp3608
F0.001412174749113635
s(S'ATC'
p3609
S'T>C'
p3610
tp3611
F0.014662580373775614
s(S'GTA'
p3612
S'T>A'
p3613
tp3614
F0.008533141037197284
s(S'TTC'
p3615
S'T>A'
p3616
tp3617
F0.0063998557778979625
s(S'ACG'
p3618
S'C>G'
p3619
tp3620
F0.006790457304248543
s(S'ATA'
p3621
S'T>G'
p3622
tp3623
F0.0003305089838351061
s(S'ATG'
p3624
S'T>G'
p3625
tp3626
F0.0004206477976083168
s(S'ACC'
p3627
S'C>T'
p3628
tp3629
F0.02502854395769485
s(S'GCA'
p3630
S'C>A'
p3631
tp3632
F0.003875968992248062
s(S'GTT'
p3633
S'T>C'
p3634
tp3635
F0.01616489393666246
s(S'CTC'
p3636
S'T>C'
p3637
tp3638
F0.025148729042725797
s(S'TTA'
p3639
S'T>C'
p3640
tp3641
F0.011537768162970976
s(S'ACA'
p3642
S'C>A'
p3643
tp3644
F0.008623279850970495
s(S'GCG'
p3645
S'C>A'
p3646
tp3647
F0.0065500871341866475
s(S'TTG'
p3648
S'T>G'
p3649
tp3650
F0.0007812030527011598
s(S'CTG'
p3651
S'T>G'
p3652
tp3653
F0.0006610179676702122
s(S'TCG'
p3654
S'C>G'
p3655
tp3656
F0.003906015263505799
s(S'CCC'
p3657
S'C>A'
p3658
tp3659
F0.01129739799290908
s(S'GTG'
p3660
S'T>G'
p3661
tp3662
F0.0008713418664743705
s(S'CCT'
p3663
S'C>A'
p3664
tp3665
F0.015233459527672615
s(S'GTA'
p3666
S'T>G'
p3667
tp3668
F0.0001802776275464215
s(S'TTC'
p3669
S'T>C'
p3670
tp3671
F0.019289706147467098
s(S'ATA'
p3672
S'T>A'
p3673
tp3674
F0.0030947659395469023
s(S'GTC'
p3675
S'T>C'
p3676
tp3677
F0.025389099212787692
s(S'CTG'
p3678
S'T>C'
p3679
tp3680
F0.017757346313322517
s(S'ATC'
p3681
S'T>G'
p3682
tp3683
F0.00048074034012379063
s(S'CTT'
p3684
S'T>G'
p3685
tp3686
F0.00030046271257736916
s(S'GCA'
p3687
S'C>G'
p3688
tp3689
F0.002133285259299321
s(S'GCT'
p3690
S'C>G'
p3691
tp3692
F0.00027041644131963225
s(S'ATT'
p3693
S'T>A'
p3694
tp3695
F0.004086292891052221
s(S'TTT'
p3696
S'T>C'
p3697
tp3698
F0.010305871041403762
s(S'ATG'
p3699
S'T>C'
p3700
tp3701
F0.017306652244456464
s(S'CTA'
p3702
S'T>C'
p3703
tp3704
F0.015443783426476775
s(S'TTG'
p3705
S'T>A'
p3706
tp3707
F0.00438675560362959
s(S'GCC'
p3708
S'C>T'
p3709
tp3710
F0.02511868277146806
s(S'GTT'
p3711
S'T>G'
p3712
tp3713
F0.0006910642389279491
s(S'GCC'
p3714
S'C>G'
p3715
tp3716
F0.00321495102457785
s(S'TTA'
p3717
S'T>G'
p3718
tp3719
F0.00024037017006189532
s(S'GTG'
p3720
S'T>A'
p3721
tp3722
F0.01382128477855898
s(S'TCC'
p3723
S'C>G'
p3724
tp3725
F0.0045069406886605375
s(S'CCT'
p3726
S'C>T'
p3727
tp3728
F0.03181900126194339
s(S'ACT'
p3729
S'C>A'
p3730
tp3731
F0.009704945616249024
s(S'CCG'
p3732
S'C>T'
p3733
tp3734
F0.023676461751096688
s(S'CCG'
p3735
S'C>G'
p3736
tp3737
F0.005107866113815276
s(S'GTA'
p3738
S'T>C'
p3739
tp3740
F0.016014662580373776
s(S'TCT'
p3741
S'C>G'
p3742
tp3743
F0.003875968992248062
s(S'GCT'
p3744
S'C>A'
p3745
tp3746
F0.0023436091581034795
s(S'TCA'
p3747
S'C>G'
p3748
tp3749
F0.006099393065320593
s(S'ACG'
p3750
S'C>A'
p3751
tp3752
F0.0061895318790938045
s(S'TCA'
p3753
S'C>T'
p3754
tp3755
F0.03680668229072772
s(S'ACG'
p3756
S'C>T'
p3757
tp3758
F0.011447629349197765
s(S'GCA'
p3759
S'C>T'
p3760
tp3761
F0.018778919536085573
s(S'CTT'
p3762
S'T>C'
p3763
tp3764
F0.015053181900126195
s(S'CCA'
p3765
S'C>G'
p3766
tp3767
F0.004747310858722433
s(S'GTT'
p3768
S'T>A'
p3769
tp3770
F0.006760411032990805
ssS'p.vcf'
p3771
g2
(g3
tp3772
Rp3773
(S'CTC'
p3774
S'T>A'
p3775
tp3776
F0.01137201221438349
s(S'GCC'
p3777
S'C>A'
p3778
tp3779
F0.0072233336843213645
s(S'TCC'
p3780
S'C>A'
p3781
tp3782
F0.015710224281352006
s(S'TTT'
p3783
S'T>G'
p3784
tp3785
F8.423712751395178e-05
s(S'GCG'
p3786
S'C>G'
p3787
tp3788
F0.0016847425502790356
s(S'CTA'
p3789
S'T>G'
p3790
tp3791
F0.000379067073812783
s(S'CTC'
p3792
S'T>G'
p3793
tp3794
F0.0005896598925976624
s(S'CCG'
p3795
S'C>A'
p3796
tp3797
F0.007560282194377172
s(S'CCC'
p3798
S'C>G'
p3799
tp3800
F0.0019795724965778667
s(S'CCT'
p3801
S'C>G'
p3802
tp3803
F0.0035379593555859745
s(S'TCT'
p3804
S'C>A'
p3805
tp3806
F0.018342634516162998
s(S'TCT'
p3807
S'C>T'
p3808
tp3809
F0.027714014952090135
s(S'GTC'
p3810
S'T>A'
p3811
tp3812
F0.01402548173107297
s(S'ATC'
p3813
S'T>A'
p3814
tp3815
F0.008971254080235865
s(S'ATT'
p3816
S'T>C'
p3817
tp3818
F0.01076129303990734
s(S'TTT'
p3819
S'T>A'
p3820
tp3821
F0.0046962198589028115
s(S'CCA'
p3822
S'C>T'
p3823
tp3824
F0.04306623144150785
s(S'GCG'
p3825
S'C>T'
p3826
tp3827
F0.01383594819416658
s(S'ACC'
p3828
S'C>A'
p3829
tp3830
F0.013814888912288091
s(S'TTA'
p3831
S'T>A'
p3832
tp3833
F0.003959144993155733
s(S'CCC'
p3834
S'C>T'
p3835
tp3836
F0.026281983784352952
s(S'TCG'
p3837
S'C>T'
p3838
tp3839
F0.0106559966305149
s(S'CTG'
p3840
S'T>A'
p3841
tp3842
F0.0077076971675265876
s(S'TCG'
p3843
S'C>A'
p3844
tp3845
F0.006528377382331262
s(S'ACT'
p3846
S'C>T'
p3847
tp3848
F0.02181741602611351
s(S'TCA'
p3849
S'C>A'
p3850
tp3851
F0.011329893650626513
s(S'ATA'
p3852
S'T>C'
p3853
tp3854
F0.009497736127198063
s(S'CTT'
p3855
S'T>A'
p3856
tp3857
F0.006675792355480678
s(S'CCA'
p3858
S'C>A'
p3859
tp3860
F0.012424976308307887
s(S'GCT'
p3861
S'C>T'
p3862
tp3863
F0.02324944719385069
s(S'ACC'
p3864
S'C>G'
p3865
tp3866
F0.004590923449510372
s(S'ATT'
p3867
S'T>G'
p3868
tp3869
F0.00031588922817731913
s(S'ATG'
p3870
S'T>A'
p3871
tp3872
F0.006507318100452774
s(S'CTA'
p3873
S'T>A'
p3874
tp3875
F0.007939349268189955
s(S'TTG'
p3876
S'T>C'
p3877
tp3878
F0.014509845214278193
s(S'TCC'
p3879
S'C>T'
p3880
tp3881
F0.03030430662314415
s(S'ACA'
p3882
S'C>T'
p3883
tp3884
F0.02836685269032326
s(S'GTG'
p3885
S'T>C'
p3886
tp3887
F0.020237969885226914
s(S'ACA'
p3888
S'C>G'
p3889
tp3890
F0.006738970201116142
s(S'TTC'
p3891
S'T>G'
p3892
tp3893
F0.0002527113825418553
s(S'ACT'
p3894
S'C>G'
p3895
tp3896
F0.0031799515636516795
s(S'GTC'
p3897
S'T>G'
p3898
tp3899
F0.0012846161945877647
s(S'ATC'
p3900
S'T>C'
p3901
tp3902
F0.013751711066652628
s(S'GTA'
p3903
S'T>A'
p3904
tp3905
F0.010845530167421291
s(S'TTC'
p3906
S'T>A'
p3907
tp3908
F0.007454985784984732
s(S'ACG'
p3909
S'C>G'
p3910
tp3911
F0.006823207328630094
s(S'ATA'
p3912
S'T>G'
p3913
tp3914
F0.00031588922817731913
s(S'ATG'
p3915
S'T>G'
p3916
tp3917
F0.0001474149731494156
s(S'ACC'
p3918
S'C>T'
p3919
tp3920
F0.02508160471727914
s(S'GCA'
p3921
S'C>A'
p3922
tp3923
F0.003980204275034221
s(S'GTT'
p3924
S'T>C'
p3925
tp3926
F0.016152469200800254
s(S'CTC'
p3927
S'T>C'
p3928
tp3929
F0.02213330525429083
s(S'TTA'
p3930
S'T>C'
p3931
tp3932
F0.011224597241234074
s(S'ACA'
p3933
S'C>A'
p3934
tp3935
F0.009034431925871328
s(S'GCG'
p3936
S'C>A'
p3937
tp3938
F0.00532799831525745
s(S'TTG'
p3939
S'T>G'
p3940
tp3941
F0.0008213119932610298
s(S'CTG'
p3942
S'T>G'
p3943
tp3944
F0.0006317784563546383
s(S'TCG'
p3945
S'C>G'
p3946
tp3947
F0.0035169000737074866
s(S'CCC'
p3948
S'C>A'
p3949
tp3950
F0.01095082657681373
s(S'GTG'
p3951
S'T>G'
p3952
tp3953
F0.0008213119932610298
s(S'CCT'
p3954
S'C>A'
p3955
tp3956
F0.015394335053174687
s(S'GTA'
p3957
S'T>G'
p3958
tp3959
F0.0002527113825418553
s(S'TTC'
p3960
S'T>C'
p3961
tp3962
F0.019711487838264714
s(S'ATA'
p3963
S'T>A'
p3964
tp3965
F0.004043382120669685
s(S'GTC'
p3966
S'T>C'
p3967
tp3968
F0.02510266399915763
s(S'CTG'
p3969
S'T>C'
p3970
tp3971
F0.016320943455828157
s(S'ATC'
p3972
S'T>G'
p3973
tp3974
F0.000379067073812783
s(S'CTT'
p3975
S'T>G'
p3976
tp3977
F0.00012635569127092766
s(S'GCA'
p3978
S'C>G'
p3979
tp3980
F0.0016636832684005474
s(S'GCT'
p3981
S'C>G'
p3982
tp3983
F0.0009687269664104454
s(S'ATT'
p3984
S'T>A'
p3985
tp3986
F0.005538591134042329
s(S'TTT'
p3987
S'T>C'
p3988
tp3989
F0.011793197851953248
s(S'ATG'
p3990
S'T>C'
p3991
tp3992
F0.01617352848267874
s(S'CTA'
p3993
S'T>C'
p3994
tp3995
F0.014509845214278193
s(S'TTG'
p3996
S'T>A'
p3997
tp3998
F0.00665473307360219
s(S'GCC'
p3999
S'C>T'
p4000
tp4001
F0.026745287985679687
s(S'GTT'
p4002
S'T>G'
p4003
tp4004
F0.0007791934295040539
s(S'GCC'
p4005
S'C>G'
p4006
tp4007
F0.0024639359797830893
s(S'TTA'
p4008
S'T>G'
p4009
tp4010
F0.0001474149731494156
s(S'GTG'
p4011
S'T>A'
p4012
tp4013
F0.013857007476045067
s(S'TCC'
p4014
S'C>G'
p4015
tp4016
F0.0029693587448668003
s(S'CCT'
p4017
S'C>T'
p4018
tp4019
F0.030072654522480785
s(S'ACT'
p4020
S'C>A'
p4021
tp4022
F0.009139728335263768
s(S'CCG'
p4023
S'C>T'
p4024
tp4025
F0.02046962198589028
s(S'CCG'
p4026
S'C>G'
p4027
tp4028
F0.003769611456249342
s(S'GTA'
p4029
S'T>C'
p4030
tp4031
F0.014551963778035169
s(S'TCT'
p4032
S'C>G'
p4033
tp4034
F0.003832789301884806
s(S'GCT'
p4035
S'C>A'
p4036
tp4037
F0.0024218174160261135
s(S'TCA'
p4038
S'C>G'
p4039
tp4040
F0.006170369590396968
s(S'ACG'
p4041
S'C>A'
p4042
tp4043
F0.007286511529956828
s(S'TCA'
p4044
S'C>T'
p4045
tp4046
F0.03729598820680215
s(S'ACG'
p4047
S'C>T'
p4048
tp4049
F0.01229862061703696
s(S'GCA'
p4050
S'C>T'
p4051
tp4052
F0.02110140044224492
s(S'CTT'
p4053
S'T>C'
p4054
tp4055
F0.013878066757923555
s(S'CCA'
p4056
S'C>G'
p4057
tp4058
F0.00522270190586501
s(S'GTT'
p4059
S'T>A'
p4060
tp4061
F0.008171001368853322
ssS'e.vcf'
p4062
g2
(g3
tp4063
Rp4064
(S'CTC'
p4065
S'T>A'
p4066
tp4067
F0.013883161512027491
s(S'GCC'
p4068
S'C>A'
p4069
tp4070
F0.007037800687285223
s(S'TCC'
p4071
S'C>A'
p4072
tp4073
F0.01140893470790378
s(S'TTT'
p4074
S'T>G'
p4075
tp4076
F0.00024742268041237116
s(S'GCG'
p4077
S'C>G'
p4078
tp4079
F0.0009347079037800687
s(S'CTA'
p4080
S'T>G'
p4081
tp4082
F0.00035738831615120275
s(S'GCC'
p4083
S'C>G'
p4084
tp4085
F0.0019793814432989693
s(S'CCG'
p4086
S'C>A'
p4087
tp4088
F0.005498281786941581
s(S'CCC'
p4089
S'C>G'
p4090
tp4091
F0.001099656357388316
s(S'CCT'
p4092
S'C>G'
p4093
tp4094
F0.0010721649484536082
s(S'TCT'
p4095
S'C>A'
p4096
tp4097
F0.012123711340206185
s(S'TCT'
p4098
S'C>T'
p4099
tp4100
F0.03224742268041237
s(S'GTC'
p4101
S'T>A'
p4102
tp4103
F0.018061855670103093
s(S'ATC'
p4104
S'T>A'
p4105
tp4106
F0.009649484536082473
s(S'ATT'
p4107
S'T>C'
p4108
tp4109
F0.01022680412371134
s(S'TTT'
p4110
S'T>A'
p4111
tp4112
F0.004810996563573883
s(S'CCA'
p4113
S'C>T'
p4114
tp4115
F0.046597938144329894
s(S'GCG'
p4116
S'C>T'
p4117
tp4118
F0.013938144329896908
s(S'ACC'
p4119
S'C>A'
p4120
tp4121
F0.009512027491408935
s(S'TTA'
p4122
S'T>A'
p4123
tp4124
F0.004673539518900344
s(S'CCC'
p4125
S'C>T'
p4126
tp4127
F0.02993814432989691
s(S'TCG'
p4128
S'C>T'
p4129
tp4130
F0.010446735395189003
s(S'CTG'
p4131
S'T>A'
p4132
tp4133
F0.009457044673539519
s(S'TCG'
p4134
S'C>A'
p4135
tp4136
F0.0044261168384879725
s(S'ACT'
p4137
S'C>T'
p4138
tp4139
F0.02323024054982818
s(S'TCA'
p4140
S'C>A'
p4141
tp4142
F0.006982817869415807
s(S'ATA'
p4143
S'T>C'
p4144
tp4145
F0.00865979381443299
s(S'CTT'
p4146
S'T>A'
p4147
tp4148
F0.006652920962199313
s(S'CCA'
p4149
S'C>A'
p4150
tp4151
F0.01168384879725086
s(S'GCT'
p4152
S'C>T'
p4153
tp4154
F0.02413745704467354
s(S'ACC'
p4155
S'C>G'
p4156
tp4157
F0.0023917525773195876
s(S'ATT'
p4158
S'T>G'
p4159
tp4160
F0.0001374570446735395
s(S'ATG'
p4161
S'T>A'
p4162
tp4163
F0.008439862542955326
s(S'CTA'
p4164
S'T>A'
p4165
tp4166
F0.008934707903780068
s(S'TTG'
p4167
S'T>C'
p4168
tp4169
F0.014350515463917525
s(S'TCC'
p4170
S'C>T'
p4171
tp4172
F0.034914089347079034
s(S'ACA'
p4173
S'C>T'
p4174
tp4175
F0.03345704467353952
s(S'GTG'
p4176
S'T>C'
p4177
tp4178
F0.021195876288659793
s(S'ACA'
p4179
S'C>G'
p4180
tp4181
F0.004563573883161512
s(S'TTC'
p4182
S'T>G'
p4183
tp4184
F0.00043986254295532644
s(S'ACT'
p4185
S'C>G'
p4186
tp4187
F0.0014020618556701032
s(S'GTC'
p4188
S'T>G'
p4189
tp4190
F0.0017319587628865979
s(S'ATC'
p4191
S'T>C'
p4192
tp4193
F0.012893470790378007
s(S'GTA'
p4194
S'T>A'
p4195
tp4196
F0.012041237113402062
s(S'TTC'
p4197
S'T>A'
p4198
tp4199
F0.008742268041237114
s(S'ACG'
p4200
S'C>G'
p4201
tp4202
F0.0026391752577319587
s(S'ATA'
p4203
S'T>G'
p4204
tp4205
F0.00046735395189003435
s(S'ATG'
p4206
S'T>G'
p4207
tp4208
F0.00016494845360824742
s(S'ACC'
p4209
S'C>T'
p4210
tp4211
F0.02977319587628866
s(S'GCA'
p4212
S'C>A'
p4213
tp4214
F0.002611683848797251
s(S'GTT'
p4215
S'T>C'
p4216
tp4217
F0.016027491408934707
s(S'CTC'
p4218
S'T>C'
p4219
tp4220
F0.023477663230240548
s(S'TTA'
p4221
S'T>C'
p4222
tp4223
F0.009759450171821307
s(S'ACA'
p4224
S'C>A'
p4225
tp4226
F0.007587628865979382
s(S'GCG'
p4227
S'C>A'
p4228
tp4229
F0.0026941580756013744
s(S'TTG'
p4230
S'T>G'
p4231
tp4232
F0.0009621993127147767
s(S'CTG'
p4233
S'T>G'
p4234
tp4235
F0.000577319587628866
s(S'TCG'
p4236
S'C>G'
p4237
tp4238
F0.0017869415807560138
s(S'CCC'
p4239
S'C>A'
p4240
tp4241
F0.009539518900343642
s(S'GTG'
p4242
S'T>G'
p4243
tp4244
F0.0017319587628865979
s(S'CCT'
p4245
S'C>A'
p4246
tp4247
F0.01154639175257732
s(S'GTA'
p4248
S'T>G'
p4249
tp4250
F0.000577319587628866
s(S'TTC'
p4251
S'T>C'
p4252
tp4253
F0.01715463917525773
s(S'ATA'
p4254
S'T>A'
p4255
tp4256
F0.005305841924398626
s(S'GTC'
p4257
S'T>C'
p4258
tp4259
F0.02795876288659794
s(S'CTG'
p4260
S'T>C'
p4261
tp4262
F0.015587628865979381
s(S'ATC'
p4263
S'T>G'
p4264
tp4265
F0.00030240549828178693
s(S'CTT'
p4266
S'T>G'
p4267
tp4268
F0.00030240549828178693
s(S'GCA'
p4269
S'C>G'
p4270
tp4271
F0.0009347079037800687
s(S'GCT'
p4272
S'C>G'
p4273
tp4274
F0.000577319587628866
s(S'ATT'
p4275
S'T>A'
p4276
tp4277
F0.006625429553264605
s(S'TTT'
p4278
S'T>C'
p4279
tp4280
F0.011463917525773196
s(S'ATG'
p4281
S'T>C'
p4282
tp4283
F0.01297594501718213
s(S'CTA'
p4284
S'T>C'
p4285
tp4286
F0.014872852233676976
s(S'TTG'
p4287
S'T>A'
p4288
tp4289
F0.008879725085910653
s(S'GCC'
p4290
S'C>T'
p4291
tp4292
F0.029058419243986253
s(S'GTT'
p4293
S'T>G'
p4294
tp4295
F0.0012646048109965636
s(S'CTC'
p4296
S'T>G'
p4297
tp4298
F0.0004948453608247423
s(S'TTA'
p4299
S'T>G'
p4300
tp4301
F0.00010996563573883161
s(S'GTG'
p4302
S'T>A'
p4303
tp4304
F0.017924398625429553
s(S'TCC'
p4305
S'C>G'
p4306
tp4307
F0.0017594501718213057
s(S'CCT'
p4308
S'C>T'
p4309
tp4310
F0.03397938144329897
s(S'ACT'
p4311
S'C>A'
p4312
tp4313
F0.006213058419243986
s(S'CCG'
p4314
S'C>T'
p4315
tp4316
F0.021360824742268043
s(S'CCG'
p4317
S'C>G'
p4318
tp4319
F0.0023642611683848797
s(S'GTA'
p4320
S'T>C'
p4321
tp4322
F0.015505154639175258
s(S'TCT'
p4323
S'C>G'
p4324
tp4325
F0.0017594501718213057
s(S'GCT'
p4326
S'C>A'
p4327
tp4328
F0.0023642611683848797
s(S'TCA'
p4329
S'C>G'
p4330
tp4331
F0.003683848797250859
s(S'ACG'
p4332
S'C>A'
p4333
tp4334
F0.005470790378006873
s(S'TCA'
p4335
S'C>T'
p4336
tp4337
F0.04013745704467354
s(S'ACG'
p4338
S'C>T'
p4339
tp4340
F0.012810996563573884
s(S'GCA'
p4341
S'C>T'
p4342
tp4343
F0.02441237113402062
s(S'CTT'
p4344
S'T>C'
p4345
tp4346
F0.01363573883161512
s(S'CCA'
p4347
S'C>G'
p4348
tp4349
F0.0034639175257731958
s(S'GTT'
p4350
S'T>A'
p4351
tp4352
F0.010749140893470791
ssS'b.vcf'
p4353
g2
(g3
tp4354
Rp4355
(S'CTC'
p4356
S'T>A'
p4357
tp4358
F0.016154891304347826
s(S'GCC'
p4359
S'C>A'
p4360
tp4361
F0.0068342391304347825
s(S'TCC'
p4362
S'C>A'
p4363
tp4364
F0.012785326086956521
s(S'TTT'
p4365
S'T>G'
p4366
tp4367
F0.0004347826086956522
s(S'GCG'
p4368
S'C>G'
p4369
tp4370
F0.0014945652173913044
s(S'CTA'
p4371
S'T>G'
p4372
tp4373
F0.0006521739130434783
s(S'GCC'
p4374
S'C>G'
p4375
tp4376
F0.0040625
s(S'CCG'
p4377
S'C>A'
p4378
tp4379
F0.007241847826086957
s(S'CCC'
p4380
S'C>G'
p4381
tp4382
F0.002051630434782609
s(S'CCT'
p4383
S'C>G'
p4384
tp4385
F0.0022690217391304348
s(S'TCT'
p4386
S'C>A'
p4387
tp4388
F0.013206521739130435
s(S'TCT'
p4389
S'C>T'
p4390
tp4391
F0.025271739130434782
s(S'GTC'
p4392
S'T>A'
p4393
tp4394
F0.01828804347826087
s(S'ATC'
p4395
S'T>A'
p4396
tp4397
F0.009171195652173914
s(S'ATT'
p4398
S'T>C'
p4399
tp4400
F0.010040760869565218
s(S'TTT'
p4401
S'T>A'
p4402
tp4403
F0.0045516304347826084
s(S'CCA'
p4404
S'C>T'
p4405
tp4406
F0.03580163043478261
s(S'GCG'
p4407
S'C>T'
p4408
tp4409
F0.011847826086956522
s(S'ACC'
p4410
S'C>A'
p4411
tp4412
F0.009035326086956522
s(S'TTA'
p4413
S'T>A'
p4414
tp4415
F0.003125
s(S'CCC'
p4416
S'C>T'
p4417
tp4418
F0.020380434782608696
s(S'TCG'
p4419
S'C>T'
p4420
tp4421
F0.008491847826086956
s(S'CTG'
p4422
S'T>A'
p4423
tp4424
F0.00955163043478261
s(S'TCG'
p4425
S'C>A'
p4426
tp4427
F0.004918478260869565
s(S'ACT'
p4428
S'C>T'
p4429
tp4430
F0.017880434782608697
s(S'TCA'
p4431
S'C>A'
p4432
tp4433
F0.009008152173913044
s(S'ATA'
p4434
S'T>C'
p4435
tp4436
F0.01422554347826087
s(S'CTT'
p4437
S'T>A'
p4438
tp4439
F0.007119565217391304
s(S'CCA'
p4440
S'C>A'
p4441
tp4442
F0.014497282608695651
s(S'GCT'
p4443
S'C>T'
p4444
tp4445
F0.01626358695652174
s(S'ACC'
p4446
S'C>G'
p4447
tp4448
F0.0038451086956521737
s(S'ATT'
p4449
S'T>G'
p4450
tp4451
F0.00024456521739130437
s(S'ATG'
p4452
S'T>A'
p4453
tp4454
F0.012146739130434783
s(S'CTA'
p4455
S'T>A'
p4456
tp4457
F0.0115625
s(S'TTG'
p4458
S'T>C'
p4459
tp4460
F0.0140625
s(S'TCC'
p4461
S'C>T'
p4462
tp4463
F0.025434782608695652
s(S'ACA'
p4464
S'C>T'
p4465
tp4466
F0.02392663043478261
s(S'GTG'
p4467
S'T>C'
p4468
tp4469
F0.029728260869565218
s(S'ACA'
p4470
S'C>G'
p4471
tp4472
F0.0046331521739130434
s(S'TTC'
p4473
S'T>G'
p4474
tp4475
F0.0009375
s(S'ACT'
p4476
S'C>G'
p4477
tp4478
F0.0028804347826086956
s(S'GTC'
p4479
S'T>G'
p4480
tp4481
F0.002377717391304348
s(S'ATC'
p4482
S'T>C'
p4483
tp4484
F0.01717391304347826
s(S'GTA'
p4485
S'T>A'
p4486
tp4487
F0.01172554347826087
s(S'TTC'
p4488
S'T>A'
p4489
tp4490
F0.011385869565217392
s(S'ACG'
p4491
S'C>G'
p4492
tp4493
F0.00421195652173913
s(S'ATA'
p4494
S'T>G'
p4495
tp4496
F0.0007608695652173913
s(S'ATG'
p4497
S'T>G'
p4498
tp4499
F0.0011820652173913043
s(S'ACC'
p4500
S'C>T'
p4501
tp4502
F0.022228260869565218
s(S'GCA'
p4503
S'C>A'
p4504
tp4505
F0.0026358695652173914
s(S'GTT'
p4506
S'T>C'
p4507
tp4508
F0.021440217391304348
s(S'CTC'
p4509
S'T>C'
p4510
tp4511
F0.03160326086956522
s(S'TTA'
p4512
S'T>C'
p4513
tp4514
F0.00842391304347826
s(S'ACA'
p4515
S'C>A'
p4516
tp4517
F0.007676630434782609
s(S'GCG'
p4518
S'C>A'
p4519
tp4520
F0.003980978260869565
s(S'TTG'
p4521
S'T>G'
p4522
tp4523
F0.0009510869565217392
s(S'CTG'
p4524
S'T>G'
p4525
tp4526
F0.0012907608695652173
s(S'TCG'
p4527
S'C>G'
p4528
tp4529
F0.0023505434782608694
s(S'CCC'
p4530
S'C>A'
p4531
tp4532
F0.009510869565217392
s(S'GTG'
p4533
S'T>G'
p4534
tp4535
F0.0024864130434782607
s(S'CCT'
p4536
S'C>A'
p4537
tp4538
F0.01188858695652174
s(S'GTA'
p4539
S'T>G'
p4540
tp4541
F0.0013315217391304348
s(S'TTC'
p4542
S'T>C'
p4543
tp4544
F0.025054347826086957
s(S'ATA'
p4545
S'T>A'
p4546
tp4547
F0.005366847826086957
s(S'GTC'
p4548
S'T>C'
p4549
tp4550
F0.031005434782608695
s(S'CTG'
p4551
S'T>C'
p4552
tp4553
F0.01953804347826087
s(S'ATC'
p4554
S'T>G'
p4555
tp4556
F0.0007880434782608696
s(S'CTT'
p4557
S'T>G'
p4558
tp4559
F0.00046195652173913043
s(S'GCA'
p4560
S'C>G'
p4561
tp4562
F0.0012771739130434782
s(S'GCT'
p4563
S'C>G'
p4564
tp4565
F0.0005842391304347826
s(S'ATT'
p4566
S'T>A'
p4567
tp4568
F0.004089673913043478
s(S'TTT'
p4569
S'T>C'
p4570
tp4571
F0.013491847826086957
s(S'ATG'
p4572
S'T>C'
p4573
tp4574
F0.024864130434782607
s(S'CTA'
p4575
S'T>C'
p4576
tp4577
F0.02058423913043478
s(S'TTG'
p4578
S'T>A'
p4579
tp4580
F0.00672554347826087
s(S'GCC'
p4581
S'C>T'
p4582
tp4583
F0.021317934782608697
s(S'GTT'
p4584
S'T>G'
p4585
tp4586
F0.0023505434782608694
s(S'CTC'
p4587
S'T>G'
p4588
tp4589
F0.0011005434782608695
s(S'TTA'
p4590
S'T>G'
p4591
tp4592
F0.00019021739130434782
s(S'GTG'
p4593
S'T>A'
p4594
tp4595
F0.019483695652173914
s(S'TCC'
p4596
S'C>G'
p4597
tp4598
F0.0027717391304347824
s(S'CCT'
p4599
S'C>T'
p4600
tp4601
F0.022608695652173914
s(S'ACT'
p4602
S'C>A'
p4603
tp4604
F0.00671195652173913
s(S'CCG'
p4605
S'C>T'
p4606
tp4607
F0.01910326086956522
s(S'CCG'
p4608
S'C>G'
p4609
tp4610
F0.004769021739130435
s(S'GTA'
p4611
S'T>C'
p4612
tp4613
F0.01908967391304348
s(S'TCT'
p4614
S'C>G'
p4615
tp4616
F0.0030978260869565215
s(S'GCT'
p4617
S'C>A'
p4618
tp4619
F0.0023641304347826087
s(S'TCA'
p4620
S'C>G'
p4621
tp4622
F0.004728260869565217
s(S'ACG'
p4623
S'C>A'
p4624
tp4625
F0.0054755434782608695
s(S'TCA'
p4626
S'C>T'
p4627
tp4628
F0.03148097826086956
s(S'ACG'
p4629
S'C>T'
p4630
tp4631
F0.010774456521739131
s(S'GCA'
p4632
S'C>T'
p4633
tp4634
F0.015679347826086956
s(S'CTT'
p4635
S'T>C'
p4636
tp4637
F0.01703804347826087
s(S'CCA'
p4638
S'C>G'
p4639
tp4640
F0.003342391304347826
s(S'GTT'
p4641
S'T>A'
p4642
tp4643
F0.01001358695652174
ssS'o.vcf'
p4644
g2
(g3
tp4645
Rp4646
(S'CTC'
p4647
S'T>A'
p4648
tp4649
F0.013727941020697836
s(S'GCC'
p4650
S'C>A'
p4651
tp4652
F0.0052962735419358935
s(S'TCC'
p4653
S'C>A'
p4654
tp4655
F0.010571361989704044
s(S'TTT'
p4656
S'T>G'
p4657
tp4658
F0.00014829565917420502
s(S'GCG'
p4659
S'C>G'
p4660
tp4661
F0.0011228099908904094
s(S'CTA'
p4662
S'T>G'
p4663
tp4664
F0.00031777641251615364
s(S'GCC'
p4665
S'C>G'
p4666
tp4667
F0.0018854733809291783
s(S'CCG'
p4668
S'C>A'
p4669
tp4670
F0.005783530707793996
s(S'CCC'
p4671
S'C>G'
p4672
tp4673
F0.0010804398025549224
s(S'CCT'
p4674
S'C>G'
p4675
tp4676
F0.000995699425883948
s(S'TCT'
p4677
S'C>A'
p4678
tp4679
F0.011461135944749274
s(S'TCT'
p4680
S'C>T'
p4681
tp4682
F0.03254030464165413
s(S'GTC'
p4683
S'T>A'
p4684
tp4685
F0.01885473380929178
s(S'ATC'
p4686
S'T>A'
p4687
tp4688
F0.009787513505497532
s(S'ATT'
p4689
S'T>C'
p4690
tp4691
F0.008876554456284559
s(S'TTT'
p4692
S'T>A'
p4693
tp4694
F0.004427684681058407
s(S'CCA'
p4695
S'C>T'
p4696
tp4697
F0.04624706056818423
s(S'GCG'
p4698
S'C>T'
p4699
tp4700
F0.013812681397368812
s(S'ACC'
p4701
S'C>A'
p4702
tp4703
F0.008728258797110353
s(S'TTA'
p4704
S'T>A'
p4705
tp4706
F0.004597165434400356
s(S'CCC'
p4707
S'C>T'
p4708
tp4709
F0.028875283350634495
s(S'TCG'
p4710
S'C>T'
p4711
tp4712
F0.010380696142194352
s(S'CTG'
p4713
S'T>A'
p4714
tp4715
F0.009406181810478148
s(S'TCG'
p4716
S'C>A'
p4717
tp4718
F0.00408872317437451
s(S'ACT'
p4719
S'C>T'
p4720
tp4721
F0.024087452068724445
s(S'TCA'
p4722
S'C>A'
p4723
tp4724
F0.00794441031290384
s(S'ATA'
p4725
S'T>C'
p4726
tp4727
F0.009702773128826558
s(S'CTT'
p4728
S'T>A'
p4729
tp4730
F0.0065038239094972776
s(S'CCA'
p4731
S'C>A'
p4732
tp4733
F0.011651801792258967
s(S'GCT'
p4734
S'C>T'
p4735
tp4736
F0.025761074507976187
s(S'ACC'
p4737
S'C>G'
p4738
tp4739
F0.002796432430142152
s(S'ATT'
p4740
S'T>G'
p4741
tp4742
F0.0002542211300129229
s(S'ATG'
p4743
S'T>A'
p4744
tp4745
F0.009639217846323328
s(S'CTA'
p4746
S'T>A'
p4747
tp4748
F0.010020549541342712
s(S'TTG'
p4749
S'T>C'
p4750
tp4751
F0.013367794419846197
s(S'TCC'
p4752
S'C>T'
p4753
tp4754
F0.03563332839014469
s(S'ACA'
p4755
S'C>T'
p4756
tp4757
F0.03317585746668644
s(S'GTG'
p4758
S'T>C'
p4759
tp4760
F0.02268923585365337
s(S'ACA'
p4761
S'C>G'
p4762
tp4763
F0.004003982797703536
s(S'TTC'
p4764
S'T>G'
p4765
tp4766
F0.00031777641251615364
s(S'ACT'
p4767
S'C>G'
p4768
tp4769
F0.0013134758384001017
s(S'GTC'
p4770
S'T>G'
p4771
tp4772
F0.0017583628159227168
s(S'ATC'
p4773
S'T>C'
p4774
tp4775
F0.013050018007330043
s(S'GTA'
p4776
S'T>A'
p4777
tp4778
F0.012838167065652608
s(S'TTC'
p4779
S'T>A'
p4780
tp4781
F0.008982479927123276
s(S'ACG'
p4782
S'C>G'
p4783
tp4784
F0.002796432430142152
s(S'ATA'
p4785
S'T>G'
p4786
tp4787
F0.0003389615066838972
s(S'ATG'
p4788
S'T>G'
p4789
tp4790
F0.00031777641251615364
s(S'ACC'
p4791
S'C>T'
p4792
tp4793
F0.02955320636400229
s(S'GCA'
p4794
S'C>A'
p4795
tp4796
F0.0023727305467872804
s(S'GTT'
p4797
S'T>C'
p4798
tp4799
F0.016926890240027116
s(S'CTC'
p4800
S'T>C'
p4801
tp4802
F0.02268923585365337
s(S'TTA'
p4803
S'T>C'
p4804
tp4805
F0.009194330868800712
s(S'ACA'
p4806
S'C>A'
p4807
tp4808
F0.007669004088723175
s(S'GCG'
p4809
S'C>A'
p4810
tp4811
F0.0032201343134970234
s(S'TTG'
p4812
S'T>G'
p4813
tp4814
F0.0008050335783742559
s(S'CTG'
p4815
S'T>G'
p4816
tp4817
F0.0004025167891871279
s(S'TCG'
p4818
S'C>G'
p4819
tp4820
F0.0016312522509162554
s(S'CCC'
p4821
S'C>A'
p4822
tp4823
F0.009702773128826558
s(S'GTG'
p4824
S'T>G'
p4825
tp4826
F0.0017371777217549732
s(S'CCT'
p4827
S'C>A'
p4828
tp4829
F0.011439950850581531
s(S'GTA'
p4830
S'T>G'
p4831
tp4832
F0.0010168845200516916
s(S'TTC'
p4833
S'T>C'
p4834
tp4835
F0.017498887782556195
s(S'ATA'
p4836
S'T>A'
p4837
tp4838
F0.0048090163760777915
s(S'GTC'
p4839
S'T>C'
p4840
tp4841
F0.027349956570556958
s(S'CTG'
p4842
S'T>C'
p4843
tp4844
F0.013749126114865581
s(S'ATC'
p4845
S'T>G'
p4846
tp4847
F0.0003813316950193844
s(S'CTT'
p4848
S'T>G'
p4849
tp4850
F0.00021185094167743576
s(S'GCA'
p4851
S'C>G'
p4852
tp4853
F0.0012075503675613838
s(S'GCT'
p4854
S'C>G'
p4855
tp4856
F0.000847403766709743
s(S'ATT'
p4857
S'T>A'
p4858
tp4859
F0.005825900896129483
s(S'TTT'
p4860
S'T>C'
p4861
tp4862
F0.011990763298942863
s(S'ATG'
p4863
S'T>C'
p4864
tp4865
F0.014172827998220451
s(S'CTA'
p4866
S'T>C'
p4867
tp4868
F0.0143423087515624
s(S'TTG'
p4869
S'T>A'
p4870
tp4871
F0.007435968052877995
s(S'GCC'
p4872
S'C>T'
p4873
tp4874
F0.027943139207253775
s(S'GTT'
p4875
S'T>G'
p4876
tp4877
F0.0017159926275872295
s(S'CTC'
p4878
S'T>G'
p4879
tp4880
F0.000550812448361333
s(S'TTA'
p4881
S'T>G'
p4882
tp4883
F0.00010592547083871788
s(S'GTG'
p4884
S'T>A'
p4885
tp4886
F0.01866406796178209
s(S'TCC'
p4887
S'C>G'
p4888
tp4889
F0.0015253267800775375
s(S'CCT'
p4890
S'C>T'
p4891
tp4892
F0.03491303518844141
s(S'ACT'
p4893
S'C>A'
p4894
tp4895
F0.005465754295277843
s(S'CCG'
p4896
S'C>T'
p4897
tp4898
F0.021990127746117832
s(S'CCG'
p4899
S'C>G'
p4900
tp4901
F0.002584581488464716
s(S'GTA'
p4902
S'T>C'
p4903
tp4904
F0.01694807533419486
s(S'TCT'
p4905
S'C>G'
p4906
tp4907
F0.001843103192593691
s(S'GCT'
p4908
S'C>A'
p4909
tp4910
F0.0018219180984259476
s(S'TCA'
p4911
S'C>G'
p4912
tp4913
F0.004046352986039023
s(S'ACG'
p4914
S'C>A'
p4915
tp4916
F0.0050208673177552276
s(S'TCA'
p4917
S'C>T'
p4918
tp4919
F0.04008219816537085
s(S'ACG'
p4920
S'C>T'
p4921
tp4922
F0.012986462724826812
s(S'GCA'
p4923
S'C>T'
p4924
tp4925
F0.023833230938711522
s(S'CTT'
p4926
S'T>C'
p4927
tp4928
F0.014405864034065631
s(S'CCA'
p4929
S'C>G'
p4930
tp4931
F0.0035802809143486644
s(S'GTT'
p4932
S'T>A'
p4933
tp4934
F0.00982988369383302
ssS'd.vcf'
p4935
g2
(g3
tp4936
Rp4937
(S'CTC'
p4938
S'T>A'
p4939
tp4940
F0.014618241492485749
s(S'GCC'
p4941
S'C>A'
p4942
tp4943
F0.005808429780618414
s(S'TCC'
p4944
S'C>A'
p4945
tp4946
F0.013495422352737952
s(S'TTT'
p4947
S'T>G'
p4948
tp4949
F0.00025911210917256864
s(S'GCG'
p4950
S'C>G'
p4951
tp4952
F0.0006045949214026602
s(S'CTA'
p4953
S'T>G'
p4954
tp4955
F0.0004966315425807566
s(S'GCC'
p4956
S'C>G'
p4957
tp4958
F0.0025911210917256866
s(S'CCG'
p4959
S'C>A'
p4960
tp4961
F0.0065641734323717395
s(S'CCC'
p4962
S'C>G'
p4963
tp4964
F0.0013387458973916047
s(S'CCT'
p4965
S'C>G'
p4966
tp4967
F0.0015762653307997928
s(S'TCT'
p4968
S'C>A'
p4969
tp4970
F0.013538607704266712
s(S'TCT'
p4971
S'C>T'
p4972
tp4973
F0.032756089134565555
s(S'GTC'
p4974
S'T>A'
p4975
tp4976
F0.018073069614786663
s(S'ATC'
p4977
S'T>A'
p4978
tp4979
F0.010234928312316462
s(S'ATT'
p4980
S'T>C'
p4981
tp4982
F0.008183624114700293
s(S'TTT'
p4983
S'T>A'
p4984
tp4985
F0.004944722750043185
s(S'CCA'
p4986
S'C>T'
p4987
tp4988
F0.04564691656590085
s(S'GCG'
p4989
S'C>T'
p4990
tp4991
F0.012782864052513387
s(S'ACC'
p4992
S'C>A'
p4993
tp4994
F0.010364484366902746
s(S'TTA'
p4995
S'T>A'
p4996
tp4997
F0.003411642770772154
s(S'CCC'
p4998
S'C>T'
p4999
tp5000
F0.028415961305925032
s(S'TCG'
p5001
S'C>T'
p5002
tp5003
F0.009824667472793229
s(S'CTG'
p5004
S'T>A'
p5005
tp5006
F0.009651926066678182
s(S'TCG'
p5007
S'C>A'
p5008
tp5009
F0.005333390913802039
s(S'ACT'
p5010
S'C>T'
p5011
tp5012
F0.02325531179823804
s(S'TCA'
p5013
S'C>A'
p5014
tp5015
F0.008745033684574192
s(S'ATA'
p5016
S'T>C'
p5017
tp5018
F0.009673518742442563
s(S'CTT'
p5019
S'T>A'
p5020
tp5021
F0.006736914838486785
s(S'CCA'
p5022
S'C>A'
p5023
tp5024
F0.0137761271376749
s(S'GCT'
p5025
S'C>T'
p5026
tp5027
F0.02398946277422698
s(S'ACC'
p5028
S'C>G'
p5029
tp5030
F0.0028502332008982553
s(S'ATT'
p5031
S'T>G'
p5032
tp5033
F0.00023751943340818795
s(S'ATG'
p5034
S'T>A'
p5035
tp5036
F0.009047331145275523
s(S'CTA'
p5037
S'T>A'
p5038
tp5039
F0.009371221281741234
s(S'TTG'
p5040
S'T>C'
p5041
tp5042
F0.013257902919329764
s(S'TCC'
p5043
S'C>T'
p5044
tp5045
F0.036426844014510275
s(S'ACA'
p5046
S'C>T'
p5047
tp5048
F0.03344705475902574
s(S'GTG'
p5049
S'T>C'
p5050
tp5051
F0.021355156330972534
s(S'ACA'
p5052
S'C>G'
p5053
tp5054
F0.004534461910519952
s(S'TTC'
p5055
S'T>G'
p5056
tp5057
F0.0004966315425807566
s(S'ACT'
p5058
S'C>G'
p5059
tp5060
F0.0017274140611504578
s(S'GTC'
p5061
S'T>G'
p5062
tp5063
F0.0019001554672655036
s(S'ATC'
p5064
S'T>C'
p5065
tp5066
F0.012739678700984625
s(S'GTA'
p5067
S'T>A'
p5068
tp5069
F0.012005527724995682
s(S'TTC'
p5070
S'T>A'
p5071
tp5072
F0.008809811711867335
s(S'ACG'
p5073
S'C>G'
p5074
tp5075
F0.0036059768526515807
s(S'ATA'
p5076
S'T>G'
p5077
tp5078
F0.0003022974607013301
s(S'ATG'
p5079
S'T>G'
p5080
tp5081
F0.00036707548799447227
s(S'ACC'
p5082
S'C>T'
p5083
tp5084
F0.02820003454828122
s(S'GCA'
p5085
S'C>A'
p5086
tp5087
F0.002569528415961306
s(S'GTT'
p5088
S'T>C'
p5089
tp5090
F0.015633097253411644
s(S'CTC'
p5091
S'T>C'
p5092
tp5093
F0.02474520642598031
s(S'TTA'
p5094
S'T>C'
p5095
tp5096
F0.00930644325444809
s(S'ACA'
p5097
S'C>A'
p5098
tp5099
F0.007298324408360684
s(S'GCG'
p5100
S'C>A'
p5101
tp5102
F0.0030013819312489204
s(S'TTG'
p5103
S'T>G'
p5104
tp5105
F0.0009284850578683711
s(S'CTG'
p5106
S'T>G'
p5107
tp5108
F0.0006261875971670409
s(S'TCG'
p5109
S'C>G'
p5110
tp5111
F0.0017705994126792192
s(S'CCC'
p5112
S'C>A'
p5113
tp5114
F0.009954223527379513
s(S'GTG'
p5115
S'T>G'
p5116
tp5117
F0.0012739678700984627
s(S'CCT'
p5118
S'C>A'
p5119
tp5120
F0.012178269131110727
s(S'GTA'
p5121
S'T>G'
p5122
tp5123
F0.0005614095698738987
s(S'TTC'
p5124
S'T>C'
p5125
tp5126
F0.017187769908447056
s(S'ATA'
p5127
S'T>A'
p5128
tp5129
F0.004923130074278805
s(S'GTC'
p5130
S'T>C'
p5131
tp5132
F0.026861288650889617
s(S'CTG'
p5133
S'T>C'
p5134
tp5135
F0.015093280359302125
s(S'ATC'
p5136
S'T>G'
p5137
tp5138
F0.0006693729486958024
s(S'CTT'
p5139
S'T>G'
p5140
tp5141
F0.00017274140611504577
s(S'GCA'
p5142
S'C>G'
p5143
tp5144
F0.001554672655035412
s(S'GCT'
p5145
S'C>G'
p5146
tp5147
F0.0007125583002245638
s(S'ATT'
p5148
S'T>A'
p5149
tp5150
F0.00567887372603213
s(S'TTT'
p5151
S'T>C'
p5152
tp5153
F0.011508896182414925
s(S'ATG'
p5154
S'T>C'
p5155
tp5156
F0.013171532216272241
s(S'CTA'
p5157
S'T>C'
p5158
tp5159
F0.014531870789428226
s(S'TTG'
p5160
S'T>A'
p5161
tp5162
F0.007816548626705822
s(S'GCC'
p5163
S'C>T'
p5164
tp5165
F0.027444290896527897
s(S'GTT'
p5166
S'T>G'
p5167
tp5168
F0.001468301951977889
s(S'CTC'
p5169
S'T>G'
p5170
tp5171
F0.0007989290032820867
s(S'TTA'
p5172
S'T>G'
p5173
tp5174
F0.00017274140611504577
s(S'GTG'
p5175
S'T>A'
p5176
tp5177
F0.01697184315080325
s(S'TCC'
p5178
S'C>G'
p5179
tp5180
F0.0030877526343064433
s(S'CCT'
p5181
S'C>T'
p5182
tp5183
F0.033878908274313356
s(S'ACT'
p5184
S'C>A'
p5185
tp5186
F0.0063482466747279325
s(S'CCG'
p5187
S'C>T'
p5188
tp5189
F0.02031870789428226
s(S'CCG'
p5190
S'C>G'
p5191
tp5192
F0.002936603903955778
s(S'GTA'
p5193
S'T>C'
p5194
tp5195
F0.016907065123510104
s(S'TCT'
p5196
S'C>G'
p5197
tp5198
F0.0017705994126792192
s(S'GCT'
p5199
S'C>A'
p5200
tp5201
F0.0021376749006736914
s(S'TCA'
p5202
S'C>G'
p5203
tp5204
F0.003562791501122819
s(S'ACG'
p5205
S'C>A'
p5206
tp5207
F0.0054845396441527035
s(S'TCA'
p5208
S'C>T'
p5209
tp5210
F0.03804629469683883
s(S'ACG'
p5211
S'C>T'
p5212
tp5213
F0.011444118155121783
s(S'GCA'
p5214
S'C>T'
p5215
tp5216
F0.02249956814648471
s(S'CTT'
p5217
S'T>C'
p5218
tp5219
F0.01345223700120919
s(S'CCA'
p5220
S'C>G'
p5221
tp5222
F0.0039730523406460525
s(S'GTT'
p5223
S'T>A'
p5224
tp5225
F0.010191742960787701
ssS'v.vcf'
p5226
g2
(g3
tp5227
Rp5228
(S'CTC'
p5229
S'T>A'
p5230
tp5231
F0.014819960634479564
s(S'GCC'
p5232
S'C>A'
p5233
tp5234
F0.00593377330091467
s(S'TCC'
p5235
S'C>A'
p5236
tp5237
F0.010912353826560148
s(S'TTT'
p5238
S'T>G'
p5239
tp5240
F5.78904712284358e-05
s(S'GCG'
p5241
S'C>G'
p5242
tp5243
F0.0010709737177260622
s(S'CTA'
p5244
S'T>G'
p5245
tp5246
F0.0003183975917563969
s(S'CTC'
p5247
S'T>G'
p5248
tp5249
F0.0002315618849137432
s(S'CCG'
p5250
S'C>A'
p5251
tp5252
F0.005962718536528887
s(S'CCC'
p5253
S'C>G'
p5254
tp5255
F0.0013604260738682413
s(S'CCT'
p5256
S'C>G'
p5257
tp5258
F0.0013314808382540234
s(S'TCT'
p5259
S'C>A'
p5260
tp5261
F0.012099108486743082
s(S'TCT'
p5262
S'C>T'
p5263
tp5264
F0.03160819729072595
s(S'GTC'
p5265
S'T>A'
p5266
tp5267
F0.016383003357647332
s(S'ATC'
p5268
S'T>A'
p5269
tp5270
F0.01033344911427579
s(S'ATT'
p5271
S'T>C'
p5272
tp5273
F0.008654625448651152
s(S'TTT'
p5274
S'T>A'
p5275
tp5276
F0.004139168692833159
s(S'CCA'
p5277
S'C>T'
p5278
tp5279
F0.04246266064605766
s(S'GCG'
p5280
S'C>T'
p5281
tp5282
F0.014819960634479564
s(S'ACC'
p5283
S'C>A'
p5284
tp5285
F0.007641542202153525
s(S'TTA'
p5286
S'T>A'
p5287
tp5288
F0.004312840106518467
s(S'CCC'
p5289
S'C>T'
p5290
tp5291
F0.027787426189649182
s(S'TCG'
p5292
S'C>T'
p5293
tp5294
F0.010593956234803751
s(S'CTG'
p5295
S'T>A'
p5296
tp5297
F0.00923353016093551
s(S'TCG'
p5298
S'C>A'
p5299
tp5300
F0.004602292462660646
s(S'ACT'
p5301
S'C>T'
p5302
tp5303
F0.02214310524487669
s(S'TCA'
p5304
S'C>A'
p5305
tp5306
F0.009001968276021767
s(S'ATA'
p5307
S'T>C'
p5308
tp5309
F0.009001968276021767
s(S'CTT'
p5310
S'T>A'
p5311
tp5312
F0.006744239898112771
s(S'CCA'
p5313
S'C>A'
p5314
tp5315
F0.013256917911311799
s(S'GCT'
p5316
S'C>T'
p5317
tp5318
F0.023908764617343984
s(S'ACC'
p5319
S'C>G'
p5320
tp5321
F0.002691906912122265
s(S'ATT'
p5322
S'T>G'
p5323
tp5324
F0.0002315618849137432
s(S'ATG'
p5325
S'T>A'
p5326
tp5327
F0.009580872988306125
s(S'CTA'
p5328
S'T>A'
p5329
tp5330
F0.010651846706032187
s(S'TTG'
p5331
S'T>C'
p5332
tp5333
F0.014154220215352552
s(S'TCC'
p5334
S'C>T'
p5335
tp5336
F0.03293967812897997
s(S'ACA'
p5337
S'C>T'
p5338
tp5339
F0.03227393770985296
s(S'GTG'
p5340
S'T>C'
p5341
tp5342
F0.025182354984369573
s(S'ACA'
p5343
S'C>G'
p5344
tp5345
F0.0044865115202037745
s(S'TTC'
p5346
S'T>G'
p5347
tp5348
F0.0002605071205279611
s(S'ACT'
p5349
S'C>G'
p5350
tp5351
F0.0013025356026398055
s(S'GTC'
p5352
S'T>G'
p5353
tp5354
F0.001707768901238856
s(S'ATC'
p5355
S'T>C'
p5356
tp5357
F0.013025356026398056
s(S'GTA'
p5358
S'T>A'
p5359
tp5360
F0.012012272779900428
s(S'TTC'
p5361
S'T>A'
p5362
tp5363
F0.010362394349890008
s(S'ACG'
p5364
S'C>G'
p5365
tp5366
F0.002952414032650226
s(S'ATA'
p5367
S'T>G'
p5368
tp5369
F0.0005210142410559222
s(S'ATG'
p5370
S'T>G'
p5371
tp5372
F0.0004920690054417043
s(S'ACC'
p5373
S'C>T'
p5374
tp5375
F0.02726641194859326
s(S'GCA'
p5376
S'C>A'
p5377
tp5378
F0.0025182354984369573
s(S'GTT'
p5379
S'T>C'
p5380
tp5381
F0.017251360426073867
s(S'CTC'
p5382
S'T>C'
p5383
tp5384
F0.02466134074331365
s(S'TTA'
p5385
S'T>C'
p5386
tp5387
F0.008625680213036934
s(S'ACA'
p5388
S'C>A'
p5389
tp5390
F0.007438925552854
s(S'GCG'
p5391
S'C>A'
p5392
tp5393
F0.00344448303809193
s(S'TTG'
p5394
S'T>G'
p5395
tp5396
F0.0008104665971981012
s(S'CTG'
p5397
S'T>G'
p5398
tp5399
F0.0002605071205279611
s(S'TCG'
p5400
S'C>G'
p5401
tp5402
F0.001476207016325113
s(S'CCC'
p5403
S'C>A'
p5404
tp5405
F0.010246613407433136
s(S'GTG'
p5406
S'T>G'
p5407
tp5408
F0.0013604260738682413
s(S'CCT'
p5409
S'C>A'
p5410
tp5411
F0.011346532360773418
s(S'GTA'
p5412
S'T>G'
p5413
tp5414
F0.0007525761259696654
s(S'TTC'
p5415
S'T>C'
p5416
tp5417
F0.018669676971170546
s(S'ATA'
p5418
S'T>A'
p5419
tp5420
F0.005962718536528887
s(S'GTC'
p5421
S'T>C'
p5422
tp5423
F0.026919069121222647
s(S'CTG'
p5424
S'T>C'
p5425
tp5426
F0.015659372467291884
s(S'ATC'
p5427
S'T>G'
p5428
tp5429
F0.0007236308903554475
s(S'CTT'
p5430
S'T>G'
p5431
tp5432
F0.0001157809424568716
s(S'GCA'
p5433
S'C>G'
p5434
tp5435
F0.0007236308903554475
s(S'GCT'
p5436
S'C>G'
p5437
tp5438
F0.00043417853421326847
s(S'ATT'
p5439
S'T>A'
p5440
tp5441
F0.006454787541970592
s(S'TTT'
p5442
S'T>C'
p5443
tp5444
F0.011375477596387634
s(S'ATG'
p5445
S'T>C'
p5446
tp5447
F0.015919879587819846
s(S'CTA'
p5448
S'T>C'
p5449
tp5450
F0.01719346995484543
s(S'TTG'
p5451
S'T>A'
p5452
tp5453
F0.0069468565474122956
s(S'GCC'
p5454
S'C>T'
p5455
tp5456
F0.027382192891050133
s(S'GTT'
p5457
S'T>G'
p5458
tp5459
F0.0019103855505383813
s(S'GCC'
p5460
S'C>G'
p5461
tp5462
F0.002691906912122265
s(S'TTA'
p5463
S'T>G'
p5464
tp5465
F0.000289452356142179
s(S'GTG'
p5466
S'T>A'
p5467
tp5468
F0.018785457913627415
s(S'TCC'
p5469
S'C>G'
p5470
tp5471
F0.0017946046080815098
s(S'CCT'
p5472
S'C>T'
p5473
tp5474
F0.03389487090424916
s(S'ACT'
p5475
S'C>A'
p5476
tp5477
F0.005644320944772491
s(S'CCG'
p5478
S'C>T'
p5479
tp5480
F0.019248581683454905
s(S'CCG'
p5481
S'C>G'
p5482
tp5483
F0.0035602639805488016
s(S'GTA'
p5484
S'T>C'
p5485
tp5486
F0.018148662730114624
s(S'TCT'
p5487
S'C>G'
p5488
tp5489
F0.002286673613523214
s(S'GCT'
p5490
S'C>A'
p5491
tp5492
F0.0019682760217668172
s(S'TCA'
p5493
S'C>G'
p5494
tp5495
F0.003791825865462545
s(S'ACG'
p5496
S'C>A'
p5497
tp5498
F0.005065416232488133
s(S'TCA'
p5499
S'C>T'
p5500
tp5501
F0.03997337038323492
s(S'ACG'
p5502
S'C>T'
p5503
tp5504
F0.012475396549727914
s(S'GCA'
p5505
S'C>T'
p5506
tp5507
F0.02249044807224731
s(S'CTT'
p5508
S'T>C'
p5509
tp5510
F0.014964686812550655
s(S'CCA'
p5511
S'C>G'
p5512
tp5513
F0.0036181544517772373
s(S'GTT'
p5514
S'T>A'
p5515
tp5516
F0.009899270580062522
ss.