ccollections
defaultdict
p0
(c__builtin__
float
p1
tp2
Rp3
S'CTT'
p4
cnumpy.core.multiarray
scalar
p5
(cnumpy
dtype
p6
(S'f8'
p7
I0
I1
tp8
Rp9
(I3
S'<'
p10
NNNI-1
I-1
I0
tp11
bS'\x1aI\x91\xec\x85\xaa-?'
p12
tp13
Rp14
sS'ATG'
p15
g5
(g9
S'\x119\xcdgD\xca/?'
p16
tp17
Rp18
sS'ACA'
p19
g5
(g9
S'\x81i\xc7\xc4\xb8o7?'
p20
tp21
Rp22
sS'ACG'
p23
g5
(g9
S'\xce\xa6\x04\xd7\xd6JF?'
p24
tp25
Rp26
sS'ATC'
p27
g5
(g9
S'\x00_Ux\xd0d)?'
p28
tp29
Rp30
sS'ATA'
p31
g5
(g9
S"C;c'\x0e#$?"
p32
tp33
Rp34
sS'CCT'
p35
g5
(g9
S':\xee\xfe\\\xc2\xb06?'
p36
tp37
Rp38
sS'ACT'
p39
g5
(g9
S':Y\xfa1\x0bp7?'
p40
tp41
Rp42
sS'ATT'
p43
g5
(g9
S'\xe8\xc1"\xeeR\xc2\'?'
p44
tp45
Rp46
sS'CTG'
p47
g5
(g9
S'\x98j \x0b\xff\x19(?'
p48
tp49
Rp50
sS'CTA'
p51
g5
(g9
S'\x05\xcf\x9bK\x96c&?'
p52
tp53
Rp54
sS'CTC'
p55
g5
(g9
S'\n\xf2(E^\xaa(?'
p56
tp57
Rp58
sS'CCG'
p59
g5
(g9
S'\xc8\xc0\xb8>\xb3&D?'
p60
tp61
Rp62
sS'CCA'
p63
g5
(g9
S'\x8b\xcdf\x9feM7?'
p64
tp65
Rp66
sS'CCC'
p67
g5
(g9
S'\x93\xf110:<7?'
p68
tp69
Rp70
sS'TCT'
p71
g5
(g9
S'&I\x1at\xaa\x917?'
p72
tp73
Rp74
sS'TTT'
p75
g5
(g9
S'h\xc9\xa3=\xe4-0?'
p76
tp77
Rp78
sS'TTC'
p79
g5
(g9
S'\x03\x8d~V\x1e\xd0.?'
p80
tp81
Rp82
sS'TCG'
p83
g5
(g9
S'\xa0&F\x8d\x84\xe3K?'
p84
tp85
Rp86
sS'TTA'
p87
g5
(g9
S'_\x9d3\x91\x0e\xa6(?'
p88
tp89
Rp90
sS'TTG'
p91
g5
(g9
S'\xfd\x0b\xe4rM\x95)?'
p92
tp93
Rp94
sS'TCC'
p95
g5
(g9
S'jBk\xc8\xeeR6?'
p96
tp97
Rp98
sS'ACC'
p99
g5
(g9
S'd4\xc1_\x8e:5?'
p100
tp101
Rp102
sS'TCA'
p103
g5
(g9
S'\x96P\xe7[\xcf\x95:?'
p104
tp105
Rp106
sS'GCA'
p107
g5
(g9
S'\x05\xae\xd8\xb8\xf309?'
p108
tp109
Rp110
sS'GTA'
p111
g5
(g9
S'T!\xce\x12\x07\xe6&?'
p112
tp113
Rp114
sS'GCC'
p115
g5
(g9
S'\x17\xde\xfc\x95\xc1l4?'
p116
tp117
Rp118
sS'GTC'
p119
g5
(g9
S'\xab\x08\x06\x8e\xd6\xfd*?'
p120
tp121
Rp122
sS'GCG'
p123
g5
(g9
S'\xd0\xcb\xf9\x7f0\xdd@?'
p124
tp125
Rp126
sS'GTG'
p127
g5
(g9
S'V5M()Q,?'
p128
tp129
Rp130
sS'GTT'
p131
g5
(g9
S']B\xfe\xa9W\xe8+?'
p132
tp133
Rp134
sS'GCT'
p135
g5
(g9
S'\xc3qXU1\x817?'
p136
tp137
Rp138
s.