(dp0
S'g.vcf'
p1
ccollections
defaultdict
p2
(c__builtin__
list
p3
tp4
Rp5
(S'CTC'
p6
S'T>A'
p7
tp8
cnumpy.core.multiarray
scalar
p9
(cnumpy
dtype
p10
(S'f8'
p11
I0
I1
tp12
Rp13
(I3
S'<'
p14
NNNI-1
I-1
I0
tp15
bS'\xe0\xd8\xeb\xe3\xa73&?'
p16
tp17
Rp18
s(S'GCC'
p19
S'C>A'
p20
tp21
g9
(g13
S'\xfaR%\x0fak%?'
p22
tp23
Rp24
s(S'TCC'
p25
S'C>A'
p26
tp27
g9
(g13
S"f{eF?\xb7'?"
p28
tp29
Rp30
s(S'TTT'
p31
S'T>G'
p32
tp33
g9
(g13
S'\xec\x80\xaf(->\x14?'
p34
tp35
Rp36
s(S'GCG'
p37
S'C>G'
p38
tp39
g9
(g13
S'\x03\xa9\xc6\x1b!\xc1\x1f?'
p40
tp41
Rp42
s(S'CTA'
p43
S'T>G'
p44
tp45
g9
(g13
S'u,\xb6\xdc7\\\x12?'
p46
tp47
Rp48
s(S'CTC'
p49
S'T>G'
p50
tp51
g9
(g13
S'\xd6#\xeb%\xdd@\x12?'
p52
tp53
Rp54
s(S'CCG'
p55
S'C>A'
p56
tp57
g9
(g13
S'vm51\x15?%?'
p58
tp59
Rp60
s(S'CCC'
p61
S'C>G'
p62
tp63
g9
(g13
S'X\xc9\x1fE\xe2h\x19?'
p64
tp65
Rp66
s(S'CCT'
p67
S'C>G'
p68
tp69
g9
(g13
S'L\xf5\x94\x0e\xa2b\x1a?'
p70
tp71
Rp72
s(S'TCT'
p73
S'C>A'
p74
tp75
g9
(g13
S'\xd0\x87\x11\x948\xaa+?'
p76
tp77
Rp78
s(S'TCT'
p79
S'C>T'
p80
tp81
g9
(g13
S'\xd8\x8e\x13\x1eD`9?'
p82
tp83
Rp84
s(S'GTC'
p85
S'T>A'
p86
tp87
g9
(g13
S'!~`\xe8\xec4+?'
p88
tp89
Rp90
s(S'ATC'
p91
S'T>A'
p92
tp93
g9
(g13
S'\x85\x7f\x7f\x85\xa2\xfc*?'
p94
tp95
Rp96
s(S'ATT'
p97
S'T>C'
p98
tp99
g9
(g13
S'\x94U/\xd9F\xca,?'
p100
tp101
Rp102
s(S'TTT'
p103
S'T>A'
p104
tp105
g9
(g13
S'\xf5\xe4\x80\xfcJ\xf2"?'
p106
tp107
Rp108
s(S'CCA'
p109
S'C>T'
p110
tp111
g9
(g13
S'&\xb5\xfd}G\x94??'
p112
tp113
Rp114
s(S'GCG'
p115
S'C>T'
p116
tp117
g9
(g13
S'\x01.\xfd\x05`\x92B?'
p118
tp119
Rp120
s(S'ACC'
p121
S'C>A'
p122
tp123
g9
(g13
S"\xc5\xa7\xfam{L'?"
p124
tp125
Rp126
s(S'TTA'
p127
S'T>A'
p128
tp129
g9
(g13
S'e\xff\xfeD\xc2Q"?'
p130
tp131
Rp132
s(S'CCC'
p133
S'C>T'
p134
tp135
g9
(g13
S'\xdc\xf3d\xfd\xa9R=?'
p136
tp137
Rp138
s(S'TCG'
p139
S'C>T'
p140
tp141
g9
(g13
S'\x81\x9a\xe7I\xc1\xff7?'
p142
tp143
Rp144
s(S'CTG'
p145
S'T>A'
p146
tp147
g9
(g13
S'k0\t\xa8v\r&?'
p148
tp149
Rp150
s(S'TCG'
p151
S'C>A'
p152
tp153
g9
(g13
S'\xb0\xa6\xeaU\xd4V(?'
p154
tp155
Rp156
s(S'ACT'
p157
S'C>T'
p158
tp159
g9
(g13
S'Q{G\xd4?\xdf:?'
p160
tp161
Rp162
s(S'TCA'
p163
S'C>A'
p164
tp165
g9
(g13
S'\xcf\x01\xd1\x1a!\xee$?'
p166
tp167
Rp168
s(S'ATA'
p169
S'T>C'
p170
tp171
g9
(g13
S'\x8b\xa7b\x14\x19\x94-?'
p172
tp173
Rp174
s(S'CTT'
p175
S'T>A'
p176
tp177
g9
(g13
S'\xd2FW\xbe\x9dk&?'
p178
tp179
Rp180
s(S'CCA'
p181
S'C>A'
p182
tp183
g9
(g13
S'\xdc7\x1a\x1ee\xc1&?'
p184
tp185
Rp186
s(S'GCT'
p187
S'C>T'
p188
tp189
g9
(g13
S'o\xa5\x13\x15L\x98B?'
p190
tp191
Rp192
s(S'ACC'
p193
S'C>G'
p194
tp195
g9
(g13
S'\xd2\xc5\xae\x9c\x12\xe9\x1e?'
p196
tp197
Rp198
s(S'ATT'
p199
S'T>G'
p200
tp201
g9
(g13
S'\x13-\x01\xbd\xa16\x13?'
p202
tp203
Rp204
s(S'ATG'
p205
S'T>A'
p206
tp207
g9
(g13
S'94rq\xd0\xca*?'
p208
tp209
Rp210
s(S'CTA'
p211
S'T>A'
p212
tp213
g9
(g13
S'\x84\x89\x99Q\xdb\x96(?'
p214
tp215
Rp216
s(S'TTG'
p217
S'T>C'
p218
tp219
g9
(g13
S'H\x95\x91\xa1\xbdA2?'
p220
tp221
Rp222
s(S'TCC'
p223
S'C>T'
p224
tp225
g9
(g13
S'\xba1\x03\xd6\x17^:?'
p226
tp227
Rp228
s(S'ACA'
p229
S'C>T'
p230
tp231
g9
(g13
S'\xfb|\xc9\xf5\xb5L;?'
p232
tp233
Rp234
s(S'GTG'
p235
S'T>C'
p236
tp237
g9
(g13
S'\x8eN\t\xc6\xccA3?'
p238
tp239
Rp240
s(S'ACA'
p241
S'C>G'
p242
tp243
g9
(g13
S'Xx(a\xfdi#?'
p244
tp245
Rp246
s(S'TTC'
p247
S'T>G'
p248
tp249
g9
(g13
S"'8\x8a!\x18\x0f\x14?"
p250
tp251
Rp252
s(S'ACT'
p253
S'C>G'
p254
tp255
g9
(g13
S'6\x1d \xdd\xae\xb2\x1e?'
p256
tp257
Rp258
s(S'GTC'
p259
S'T>G'
p260
tp261
g9
(g13
S'[\xb6C\x0f\xda\x97\x18?'
p262
tp263
Rp264
s(S'ATC'
p265
S'T>C'
p266
tp267
g9
(g13
S'8j\xfa\x11\xe1\x011?'
p268
tp269
Rp270
s(S'GTA'
p271
S'T>A'
p272
tp273
g9
(g13
S'*\x08\xab+\xde\x8e.?'
p274
tp275
Rp276
s(S'TTC'
p277
S'T>A'
p278
tp279
g9
(g13
S"/\x01\x9d|O\x8c'?"
p280
tp281
Rp282
s(S'ACG'
p283
S'C>G'
p284
tp285
g9
(g13
S'W\x82\x9f\x9c\x05a"?'
p286
tp287
Rp288
s(S'ATA'
p289
S'T>G'
p290
tp291
g9
(g13
S'\xa7\x7f\xa4\x02\xdf\xd9\x17?'
p292
tp293
Rp294
s(S'ATG'
p295
S'T>G'
p296
tp297
g9
(g13
S'\x173\xe4U\xf4\xcc\x15?'
p298
tp299
Rp300
s(S'ACC'
p301
S'C>T'
p302
tp303
g9
(g13
S'\xadc\xb81/48?'
p304
tp305
Rp306
s(S'GCA'
p307
S'C>A'
p308
tp309
g9
(g13
S'\xc4\xd2\xd2\x1e\x7f[#?'
p310
tp311
Rp312
s(S'GTT'
p313
S'T>C'
p314
tp315
g9
(g13
S'\x97T\x9a\xb7\x82\xc94?'
p316
tp317
Rp318
s(S'CTC'
p319
S'T>C'
p320
tp321
g9
(g13
S'9\x12S4\xd9(1?'
p322
tp323
Rp324
s(S'TTA'
p325
S'T>C'
p326
tp327
g9
(g13
S'\xa5F\xccLB\xf40?'
p328
tp329
Rp330
s(S'ACA'
p331
S'C>A'
p332
tp333
g9
(g13
S'\xf5a\xe3\xff\xc3#&?'
p334
tp335
Rp336
s(S'GCG'
p337
S'C>A'
p338
tp339
g9
(g13
S'O\x89j\x87c\xfe,?'
p340
tp341
Rp342
s(S'TTG'
p343
S'T>G'
p344
tp345
g9
(g13
S'A\xea\x14\x83\xb1*\x1f?'
p346
tp347
Rp348
s(S'CTG'
p349
S'T>G'
p350
tp351
g9
(g13
S'/ \xdfW\xc5\x03\x1a?'
p352
tp353
Rp354
s(S'TCG'
p355
S'C>G'
p356
tp357
g9
(g13
S'S\xe71m\xe2\xe0\x1c?'
p358
tp359
Rp360
s(S'CCC'
p361
S'C>A'
p362
tp363
g9
(g13
S'\x93\x94qF\xf3l(?'
p364
tp365
Rp366
s(S'GTG'
p367
S'T>G'
p368
tp369
g9
(g13
S'\xdc\xf5\xb0/\xbb\xe7\x16?'
p370
tp371
Rp372
s(S'CCT'
p373
S'C>A'
p374
tp375
g9
(g13
S"\xcc:\x88\x88\x1e_'?"
p376
tp377
Rp378
s(S'GTA'
p379
S'T>G'
p380
tp381
g9
(g13
S'x\xae\x04BH\xc9\x17?'
p382
tp383
Rp384
s(S'TTC'
p385
S'T>C'
p386
tp387
g9
(g13
S'\x1c\x19\xf3*\xde\xd55?'
p388
tp389
Rp390
s(S'ATA'
p391
S'T>A'
p392
tp393
g9
(g13
S'\xc0\x9f&\xa3ri$?'
p394
tp395
Rp396
s(S'GTC'
p397
S'T>C'
p398
tp399
g9
(g13
S'1E\xe4H\xdb\xe93?'
p400
tp401
Rp402
s(S'CTG'
p403
S'T>C'
p404
tp405
g9
(g13
S'DK\xd40w\xb40?'
p406
tp407
Rp408
s(S'ATC'
p409
S'T>G'
p410
tp411
g9
(g13
S'\t)\xd2,\x8a(\x14?'
p412
tp413
Rp414
s(S'CTT'
p415
S'T>G'
p416
tp417
g9
(g13
S'Lq\xe2e[m\x12?'
p418
tp419
Rp420
s(S'GCA'
p421
S'C>G'
p422
tp423
g9
(g13
S'@\x90\rx\x8a\xdc ?'
p424
tp425
Rp426
s(S'GCT'
p427
S'C>G'
p428
tp429
g9
(g13
S'f\xab\xc0/\x9a{\x13?'
p430
tp431
Rp432
s(S'ATT'
p433
S'T>A'
p434
tp435
g9
(g13
S'\xaa\x82\xa1\xbe\xca\x9b&?'
p436
tp437
Rp438
s(S'TTT'
p439
S'T>C'
p440
tp441
g9
(g13
S'\x7fK\xf2\xdd\xde\xc64?'
p442
tp443
Rp444
s(S'ATG'
p445
S'T>C'
p446
tp447
g9
(g13
S'+\x9d\xefx\xb0\x832?'
p448
tp449
Rp450
s(S'CTA'
p451
S'T>C'
p452
tp453
g9
(g13
S'\x9c\xdcL\x8f\xf9\x162?'
p454
tp455
Rp456
s(S'TTG'
p457
S'T>A'
p458
tp459
g9
(g13
S'Xf\xe9\xb4$j&?'
p460
tp461
Rp462
s(S'GCC'
p463
S'C>T'
p464
tp465
g9
(g13
S'\xdd\xf7\x93\xee\xb61??'
p466
tp467
Rp468
s(S'GTT'
p469
S'T>G'
p470
tp471
g9
(g13
S'>\x00\xe8\x9aH8$?'
p472
tp473
Rp474
s(S'GCC'
p475
S'C>G'
p476
tp477
g9
(g13
S'\xcb\x0f6P\x92\xd3\x1d?'
p478
tp479
Rp480
s(S'TTA'
p481
S'T>G'
p482
tp483
g9
(g13
S'\x01\xaf\xd7S\x06\xde\x10?'
p484
tp485
Rp486
s(S'GTG'
p487
S'T>A'
p488
tp489
g9
(g13
S'\x12P5\x0e0\xc9-?'
p490
tp491
Rp492
s(S'TCC'
p493
S'C>G'
p494
tp495
g9
(g13
S'\x83\xe7\xfa\xce\xbc#\x19?'
p496
tp497
Rp498
s(S'CCT'
p499
S'C>T'
p500
tp501
g9
(g13
S'\x8ab\xc2\x07\x19C;?'
p502
tp503
Rp504
s(S'ACT'
p505
S'C>A'
p506
tp507
g9
(g13
S'\xf7!dW\x82,)?'
p508
tp509
Rp510
s(S'CCG'
p511
S'C>T'
p512
tp513
g9
(g13
S' Ur\xa3\xfca<?'
p514
tp515
Rp516
s(S'CCG'
p517
S'C>G'
p518
tp519
g9
(g13
S'4\xe1\x95\xde\x9b\xa5\x1f?'
p520
tp521
Rp522
s(S'GTA'
p523
S'T>C'
p524
tp525
g9
(g13
S'\x95\x0e8r\xdf\x034?'
p526
tp527
Rp528
s(S'TCT'
p529
S'C>G'
p530
tp531
g9
(g13
S"f\x9bY'E2\x1a?"
p532
tp533
Rp534
s(S'GCT'
p535
S'C>A'
p536
tp537
g9
(g13
S'Av&A\xc0\xa3\x1e?'
p538
tp539
Rp540
s(S'TCA'
p541
S'C>G'
p542
tp543
g9
(g13
S'Bw\xc6\x99\x1c##?'
p544
tp545
Rp546
s(S'ACG'
p547
S'C>A'
p548
tp549
g9
(g13
S'Y_F\\\x9dj&?'
p550
tp551
Rp552
s(S'TCA'
p553
S'C>T'
p554
tp555
g9
(g13
S'\xd6 \x16\n\x84\xf1??'
p556
tp557
Rp558
s(S'ACG'
p559
S'C>T'
p560
tp561
g9
(g13
S'hE\xe3\xe3\xa2\x135?'
p562
tp563
Rp564
s(S'GCA'
p565
S'C>T'
p566
tp567
g9
(g13
S'm\xcf\xde>T\x0eA?'
p568
tp569
Rp570
s(S'CTT'
p571
S'T>C'
p572
tp573
g9
(g13
S'G4L\xcf\xd9\x1b3?'
p574
tp575
Rp576
s(S'CCA'
p577
S'C>G'
p578
tp579
g9
(g13
S'\xdf\t##\xf8m!?'
p580
tp581
Rp582
s(S'GTT'
p583
S'T>A'
p584
tp585
g9
(g13
S'a\x94\xc95$\x88*?'
p586
tp587
Rp588
ssS'q.vcf'
p589
g5
sS'n.vcf'
p590
g5
sS'u.vcf'
p591
g5
sS'r.vcf'
p592
g5
sS't.vcf'
p593
g5
sS'i.vcf'
p594
g5
sS'f.vcf'
p595
g5
sS's.vcf'
p596
g5
sS'm.vcf'
p597
g5
sS'j.vcf'
p598
g5
sS'l.vcf'
p599
g5
sS'a.vcf'
p600
g5
sS'p.vcf'
p601
g5
sS'e.vcf'
p602
g5
sS'b.vcf'
p603
g5
sS'o.vcf'
p604
g5
sS'd.vcf'
p605
g5
sS'v.vcf'
p606
g5
s.